   1               		.file	"microSD.c"
   2               	__SREG__ = 0x3f
   3               	__SP_H__ = 0x3e
   4               	__SP_L__ = 0x3d
   5               	__CCP__  = 0x34
   6               	__tmp_reg__ = 0
   7               	__zero_reg__ = 1
  15               	.Ltext0:
  16               	.global	UnInitSdInterface
  18               	UnInitSdInterface:
  19               	.LFB3:
  20               	.LM1:
  21               	/* prologue: function */
  22               	/* frame size = 0 */
  23               	.LM2:
  24 0000 8AB1      		in r24,42-32
  25 0002 8F7C      		andi r24,lo8(-49)
  26 0004 8AB9      		out 42-32,r24
  27               	.LM3:
  28 0006 8BB1      		in r24,43-32
  29 0008 8063      		ori r24,lo8(48)
  30 000a 8BB9      		out 43-32,r24
  31               	.LM4:
  32 000c 1092 C900 		sts 201,__zero_reg__
  33               	.LM5:
  34 0010 E4E6      		ldi r30,lo8(100)
  35 0012 F0E0      		ldi r31,hi8(100)
  36 0014 8081      		ld r24,Z
  37 0016 8061      		ori r24,lo8(16)
  38 0018 8083      		st Z,r24
  39               	/* epilogue start */
  40               	.LM6:
  41 001a 0895      		ret
  42               	.LFE3:
  44               	.global	InitSdInterface
  46               	InitSdInterface:
  47               	.LFB4:
  48               	.LM7:
  49               	/* prologue: function */
  50               	/* frame size = 0 */
  51               	.LM8:
  52 001c E4E6      		ldi r30,lo8(100)
  53 001e F0E0      		ldi r31,hi8(100)
  54 0020 8081      		ld r24,Z
  55 0022 8F7E      		andi r24,lo8(-17)
  56 0024 8083      		st Z,r24
  57               	.LM9:
  58 0026 ECEC      		ldi r30,lo8(204)
  59 0028 F0E0      		ldi r31,hi8(204)
  60 002a 1182      		std Z+1,__zero_reg__
  61 002c 1082      		st Z,__zero_reg__
  62               	.LM10:
  63 002e 549A      		sbi 42-32,4
  64               	.LM11:
  65 0030 80EC      		ldi r24,lo8(-64)
  66 0032 8093 CA00 		sts 202,r24
  67               	.LM12:
  68 0036 88E1      		ldi r24,lo8(24)
  69 0038 8093 C900 		sts 201,r24
  70               	.LM13:
  71 003c 81E0      		ldi r24,lo8(1)
  72 003e 90E0      		ldi r25,hi8(1)
  73 0040 9183      		std Z+1,r25
  74 0042 8083      		st Z,r24
  75               	.LM14:
  76 0044 559A      		sbi 42-32,5
  77               	.LM15:
  78 0046 5D9A      		sbi 43-32,5
  79               	/* epilogue start */
  80               	.LM16:
  81 0048 0895      		ret
  82               	.LFE4:
  84               	.global	EndSdTransfer
  86               	EndSdTransfer:
  87               	.LFB5:
  88               	.LM17:
  89               	/* prologue: function */
  90               	/* frame size = 0 */
  91               	.LM18:
  92 004a 5D9A      		sbi 43-32,5
  93               	/* epilogue start */
  94               	.LM19:
  95 004c 0895      		ret
  96               	.LFE5:
  98               	.global	StartSdTransfer
 100               	StartSdTransfer:
 101               	.LFB6:
 102               	.LM20:
 103               	/* prologue: function */
 104               	/* frame size = 0 */
 105               	.LM21:
 106 004e 5D9A      		sbi 43-32,5
 107               	.LM22:
 108 0050 5D98      		cbi 43-32,5
 109               	/* epilogue start */
 110               	.LM23:
 111 0052 0895      		ret
 112               	.LFE6:
 114               	.global	TransferSdByte
 116               	TransferSdByte:
 117               	.LFB7:
 118               	.LM24:
 119               	.LVL0:
 120               	/* prologue: function */
 121               	/* frame size = 0 */
 122 0054 982F      		mov r25,r24
 123               	.LVL1:
 124               	.L10:
 125               	.LM25:
 126 0056 8091 C800 		lds r24,200
 127 005a 85FF      		sbrs r24,5
 128 005c 00C0      		rjmp .L10
 129               	.LM26:
 130 005e 9093 CE00 		sts 206,r25
 131               	.L11:
 132               	.LM27:
 133 0062 8091 C800 		lds r24,200
 134 0066 87FF      		sbrs r24,7
 135 0068 00C0      		rjmp .L11
 136               	.LM28:
 137 006a 8091 CE00 		lds r24,206
 138               	/* epilogue start */
 139               	.LM29:
 140 006e 0895      		ret
 141               	.LFE7:
 144               	SendDummyByte:
 145               	.LFB8:
 146               	.LM30:
 147               	/* prologue: function */
 148               	/* frame size = 0 */
 149               	.LM31:
 150 0070 8091 C800 		lds r24,200
 151 0074 8064      		ori r24,lo8(64)
 152 0076 8093 C800 		sts 200,r24
 153               	.L16:
 154               	.LBB84:
 155               	.LBB85:
 156               	.LM32:
 157 007a 8091 C800 		lds r24,200
 158 007e 85FF      		sbrs r24,5
 159 0080 00C0      		rjmp .L16
 160               	.LM33:
 161 0082 8FEF      		ldi r24,lo8(-1)
 162 0084 8093 CE00 		sts 206,r24
 163               	.L17:
 164               	.LM34:
 165 0088 8091 C800 		lds r24,200
 166 008c 87FF      		sbrs r24,7
 167 008e 00C0      		rjmp .L17
 168               	.LM35:
 169 0090 8091 CE00 		lds r24,206
 170               	.L18:
 171               	.LBE85:
 172               	.LBE84:
 173               	.LM36:
 174 0094 8091 C800 		lds r24,200
 175 0098 86FF      		sbrs r24,6
 176 009a 00C0      		rjmp .L18
 177               	/* epilogue start */
 178               	.LM37:
 179 009c 0895      		ret
 180               	.LFE8:
 182               	.global	SendSdCommand
 184               	SendSdCommand:
 185               	.LFB9:
 186               	.LM38:
 187               	.LVL2:
 188 009e 1F93      		push r17
 189               	/* prologue: function */
 190               	/* frame size = 0 */
 191 00a0 282F      		mov r18,r24
 192               	.LBB86:
 193               	.LBB87:
 194               	.LM39:
 195 00a2 5D9A      		sbi 43-32,5
 196               	.LM40:
 197 00a4 5D98      		cbi 43-32,5
 198               	.LVL3:
 199               	.L24:
 200               	.LBE87:
 201               	.LBE86:
 202               	.LBB88:
 203               	.LBB89:
 204               	.LM41:
 205 00a6 8091 C800 		lds r24,200
 206 00aa 85FF      		sbrs r24,5
 207 00ac 00C0      		rjmp .L24
 208               	.LM42:
 209 00ae 8FEF      		ldi r24,lo8(-1)
 210 00b0 8093 CE00 		sts 206,r24
 211               	.L25:
 212               	.LM43:
 213 00b4 8091 C800 		lds r24,200
 214 00b8 87FF      		sbrs r24,7
 215 00ba 00C0      		rjmp .L25
 216               	.LM44:
 217 00bc 8091 CE00 		lds r24,206
 218               	.LBE89:
 219               	.LBE88:
 220               	.LM45:
 221 00c0 27FF      		sbrs r18,7
 222 00c2 00C0      		rjmp .L70
 223               	.L71:
 224               	.LBB90:
 225               	.LBB91:
 226               	.LM46:
 227 00c4 8091 C800 		lds r24,200
 228 00c8 85FF      		sbrs r24,5
 229 00ca 00C0      		rjmp .L71
 230               	.LM47:
 231 00cc 87E7      		ldi r24,lo8(119)
 232 00ce 8093 CE00 		sts 206,r24
 233               	.L28:
 234               	.LM48:
 235 00d2 8091 C800 		lds r24,200
 236 00d6 87FF      		sbrs r24,7
 237 00d8 00C0      		rjmp .L28
 238               	.LM49:
 239 00da 8091 CE00 		lds r24,206
 240               	.L29:
 241               	.LBE91:
 242               	.LBE90:
 243               	.LBB92:
 244               	.LBB93:
 245               	.LM50:
 246 00de 8091 C800 		lds r24,200
 247 00e2 85FF      		sbrs r24,5
 248 00e4 00C0      		rjmp .L29
 249               	.LM51:
 250 00e6 1092 CE00 		sts 206,__zero_reg__
 251               	.L30:
 252               	.LM52:
 253 00ea 8091 C800 		lds r24,200
 254 00ee 87FF      		sbrs r24,7
 255 00f0 00C0      		rjmp .L30
 256               	.LM53:
 257 00f2 8091 CE00 		lds r24,206
 258               	.L31:
 259               	.LBE93:
 260               	.LBE92:
 261               	.LBB94:
 262               	.LBB95:
 263               	.LM54:
 264 00f6 8091 C800 		lds r24,200
 265 00fa 85FF      		sbrs r24,5
 266 00fc 00C0      		rjmp .L31
 267               	.LM55:
 268 00fe 1092 CE00 		sts 206,__zero_reg__
 269               	.L32:
 270               	.LM56:
 271 0102 8091 C800 		lds r24,200
 272 0106 87FF      		sbrs r24,7
 273 0108 00C0      		rjmp .L32
 274               	.LM57:
 275 010a 8091 CE00 		lds r24,206
 276               	.L33:
 277               	.LBE95:
 278               	.LBE94:
 279               	.LBB96:
 280               	.LBB97:
 281               	.LM58:
 282 010e 8091 C800 		lds r24,200
 283 0112 85FF      		sbrs r24,5
 284 0114 00C0      		rjmp .L33
 285               	.LM59:
 286 0116 1092 CE00 		sts 206,__zero_reg__
 287               	.L34:
 288               	.LM60:
 289 011a 8091 C800 		lds r24,200
 290 011e 87FF      		sbrs r24,7
 291 0120 00C0      		rjmp .L34
 292               	.LM61:
 293 0122 8091 CE00 		lds r24,206
 294               	.L35:
 295               	.LBE97:
 296               	.LBE96:
 297               	.LBB98:
 298               	.LBB99:
 299               	.LM62:
 300 0126 8091 C800 		lds r24,200
 301 012a 85FF      		sbrs r24,5
 302 012c 00C0      		rjmp .L35
 303               	.LM63:
 304 012e 1092 CE00 		sts 206,__zero_reg__
 305               	.L36:
 306               	.LM64:
 307 0132 8091 C800 		lds r24,200
 308 0136 87FF      		sbrs r24,7
 309 0138 00C0      		rjmp .L36
 310               	.LM65:
 311 013a 8091 CE00 		lds r24,206
 312               	.L37:
 313               	.LBE99:
 314               	.LBE98:
 315               	.LBB100:
 316               	.LBB101:
 317               	.LM66:
 318 013e 8091 C800 		lds r24,200
 319 0142 85FF      		sbrs r24,5
 320 0144 00C0      		rjmp .L37
 321               	.LM67:
 322 0146 81E0      		ldi r24,lo8(1)
 323 0148 8093 CE00 		sts 206,r24
 324               	.L38:
 325               	.LM68:
 326 014c 8091 C800 		lds r24,200
 327 0150 87FF      		sbrs r24,7
 328 0152 00C0      		rjmp .L38
 329               	.LM69:
 330 0154 8091 CE00 		lds r24,206
 331 0158 9AE0      		ldi r25,lo8(10)
 332               	.LVL4:
 333               	.LBE101:
 334               	.LBE100:
 335               	.LBB102:
 336               	.LBB103:
 337               	.LM70:
 338 015a 3FEF      		ldi r19,lo8(-1)
 339               	.LVL5:
 340               	.L107:
 341               	.LM71:
 342 015c 8091 C800 		lds r24,200
 343 0160 85FF      		sbrs r24,5
 344 0162 00C0      		rjmp .L107
 345               	.LM72:
 346 0164 3093 CE00 		sts 206,r19
 347               	.L40:
 348               	.LM73:
 349 0168 8091 C800 		lds r24,200
 350 016c 87FF      		sbrs r24,7
 351 016e 00C0      		rjmp .L40
 352               	.LM74:
 353 0170 1091 CE00 		lds r17,206
 354               	.LBE103:
 355               	.LBE102:
 356               	.LM75:
 357 0174 1F3F      		cpi r17,lo8(-1)
 358 0176 01F4      		brne .L41
 359 0178 9150      		subi r25,lo8(-(-1))
 360 017a 01F4      		brne .L107
 361               	.L41:
 362               	.LM76:
 363 017c 8091 C800 		lds r24,200
 364 0180 8064      		ori r24,lo8(64)
 365 0182 8093 C800 		sts 200,r24
 366               	.L42:
 367               	.LBB104:
 368               	.LBB105:
 369               	.LM77:
 370 0186 8091 C800 		lds r24,200
 371 018a 85FF      		sbrs r24,5
 372 018c 00C0      		rjmp .L42
 373               	.LM78:
 374 018e 8FEF      		ldi r24,lo8(-1)
 375 0190 8093 CE00 		sts 206,r24
 376               	.L43:
 377               	.LM79:
 378 0194 8091 C800 		lds r24,200
 379 0198 87FF      		sbrs r24,7
 380 019a 00C0      		rjmp .L43
 381               	.LM80:
 382 019c 8091 CE00 		lds r24,206
 383               	.L44:
 384               	.LBE105:
 385               	.LBE104:
 386               	.LM81:
 387 01a0 8091 C800 		lds r24,200
 388 01a4 86FF      		sbrs r24,6
 389 01a6 00C0      		rjmp .L44
 390               	.LM82:
 391 01a8 1230      		cpi r17,lo8(2)
 392 01aa 00F0      		brlo .L45
 393               	.LBB106:
 394               	.LBB107:
 395               	.LM83:
 396 01ac 5D9A      		sbi 43-32,5
 397 01ae 00C0      		rjmp .L46
 398               	.L45:
 399               	.LBE107:
 400               	.LBE106:
 401               	.LBB108:
 402               	.LBB109:
 403 01b0 5D9A      		sbi 43-32,5
 404               	.LBE109:
 405               	.LBE108:
 406               	.LM84:
 407 01b2 2F77      		andi r18,lo8(127)
 408               	.LBB110:
 409               	.LBB111:
 410               	.LM85:
 411 01b4 5D9A      		sbi 43-32,5
 412               	.LM86:
 413 01b6 5D98      		cbi 43-32,5
 414               	.L70:
 415               	.LBE111:
 416               	.LBE110:
 417               	.LBB112:
 418               	.LBB113:
 419               	.LM87:
 420 01b8 8091 C800 		lds r24,200
 421 01bc 85FF      		sbrs r24,5
 422 01be 00C0      		rjmp .L70
 423               	.LBE113:
 424               	.LBE112:
 425               	.LM88:
 426 01c0 822F      		mov r24,r18
 427 01c2 8064      		ori r24,lo8(64)
 428               	.LBB115:
 429               	.LBB114:
 430               	.LM89:
 431 01c4 8093 CE00 		sts 206,r24
 432               	.L47:
 433               	.LM90:
 434 01c8 8091 C800 		lds r24,200
 435 01cc 87FF      		sbrs r24,7
 436 01ce 00C0      		rjmp .L47
 437               	.LM91:
 438 01d0 8091 CE00 		lds r24,206
 439               	.L48:
 440               	.LBE114:
 441               	.LBE115:
 442               	.LBB116:
 443               	.LBB117:
 444               	.LM92:
 445 01d4 8091 C800 		lds r24,200
 446 01d8 85FF      		sbrs r24,5
 447 01da 00C0      		rjmp .L48
 448               	.LBE117:
 449               	.LBE116:
 450               	.LM93:
 451 01dc 872F      		mov r24,r23
 452 01de 9927      		clr r25
 453 01e0 AA27      		clr r26
 454 01e2 BB27      		clr r27
 455               	.LBB119:
 456               	.LBB118:
 457               	.LM94:
 458 01e4 8093 CE00 		sts 206,r24
 459               	.L49:
 460               	.LM95:
 461 01e8 8091 C800 		lds r24,200
 462 01ec 87FF      		sbrs r24,7
 463 01ee 00C0      		rjmp .L49
 464               	.LM96:
 465 01f0 8091 CE00 		lds r24,206
 466               	.L50:
 467               	.LBE118:
 468               	.LBE119:
 469               	.LBB120:
 470               	.LBB121:
 471               	.LM97:
 472 01f4 8091 C800 		lds r24,200
 473 01f8 85FF      		sbrs r24,5
 474 01fa 00C0      		rjmp .L50
 475               	.LBE121:
 476               	.LBE120:
 477               	.LM98:
 478 01fc CB01      		movw r24,r22
 479 01fe AA27      		clr r26
 480 0200 BB27      		clr r27
 481               	.LVL6:
 482               	.LBB123:
 483               	.LBB122:
 484               	.LM99:
 485 0202 8093 CE00 		sts 206,r24
 486               	.L51:
 487               	.LM100:
 488 0206 8091 C800 		lds r24,200
 489 020a 87FF      		sbrs r24,7
 490 020c 00C0      		rjmp .L51
 491               	.LM101:
 492 020e 8091 CE00 		lds r24,206
 493               	.L52:
 494               	.LBE122:
 495               	.LBE123:
 496               	.LBB124:
 497               	.LBB125:
 498               	.LM102:
 499 0212 8091 C800 		lds r24,200
 500 0216 85FF      		sbrs r24,5
 501 0218 00C0      		rjmp .L52
 502               	.LBE125:
 503               	.LBE124:
 504               	.LM103:
 505 021a BB27      		clr r27
 506 021c A72F      		mov r26,r23
 507 021e 962F      		mov r25,r22
 508 0220 852F      		mov r24,r21
 509               	.LBB127:
 510               	.LBB126:
 511               	.LM104:
 512 0222 8093 CE00 		sts 206,r24
 513               	.L53:
 514               	.LM105:
 515 0226 8091 C800 		lds r24,200
 516 022a 87FF      		sbrs r24,7
 517 022c 00C0      		rjmp .L53
 518               	.LM106:
 519 022e 8091 CE00 		lds r24,206
 520               	.L54:
 521               	.LBE126:
 522               	.LBE127:
 523               	.LBB128:
 524               	.LBB129:
 525               	.LM107:
 526 0232 8091 C800 		lds r24,200
 527 0236 85FF      		sbrs r24,5
 528 0238 00C0      		rjmp .L54
 529               	.LM108:
 530 023a 4093 CE00 		sts 206,r20
 531               	.L55:
 532               	.LM109:
 533 023e 8091 C800 		lds r24,200
 534 0242 87FF      		sbrs r24,7
 535 0244 00C0      		rjmp .L55
 536               	.LM110:
 537 0246 8091 CE00 		lds r24,206
 538               	.LBE129:
 539               	.LBE128:
 540               	.LM111:
 541 024a 2223      		tst r18
 542 024c 01F4      		brne .L56
 543 024e 95E9      		ldi r25,lo8(-107)
 544               	.LVL7:
 545 0250 00C0      		rjmp .L69
 546               	.LVL8:
 547               	.L56:
 548               	.LM112:
 549 0252 2830      		cpi r18,lo8(8)
 550 0254 01F4      		brne .L58
 551 0256 97E8      		ldi r25,lo8(-121)
 552               	.LVL9:
 553 0258 00C0      		rjmp .L69
 554               	.LVL10:
 555               	.L58:
 556 025a 91E0      		ldi r25,lo8(1)
 557               	.LVL11:
 558               	.L69:
 559               	.LBB130:
 560               	.LBB131:
 561               	.LM113:
 562 025c 8091 C800 		lds r24,200
 563 0260 85FF      		sbrs r24,5
 564 0262 00C0      		rjmp .L69
 565               	.LM114:
 566 0264 9093 CE00 		sts 206,r25
 567               	.L59:
 568               	.LM115:
 569 0268 8091 C800 		lds r24,200
 570 026c 87FF      		sbrs r24,7
 571 026e 00C0      		rjmp .L59
 572               	.LM116:
 573 0270 8091 CE00 		lds r24,206
 574               	.LBE131:
 575               	.LBE130:
 576               	.LM117:
 577 0274 2C30      		cpi r18,lo8(12)
 578 0276 01F4      		brne .L110
 579               	.L68:
 580               	.LBB132:
 581               	.LBB133:
 582               	.LM118:
 583 0278 8091 C800 		lds r24,200
 584 027c 85FF      		sbrs r24,5
 585 027e 00C0      		rjmp .L68
 586               	.LM119:
 587 0280 8FEF      		ldi r24,lo8(-1)
 588 0282 8093 CE00 		sts 206,r24
 589               	.L62:
 590               	.LM120:
 591 0286 8091 C800 		lds r24,200
 592 028a 87FF      		sbrs r24,7
 593 028c 00C0      		rjmp .L62
 594               	.LM121:
 595 028e 8091 CE00 		lds r24,206
 596               	.L110:
 597 0292 9AE0      		ldi r25,lo8(10)
 598               	.LVL12:
 599               	.LBE133:
 600               	.LBE132:
 601               	.LBB134:
 602               	.LBB135:
 603               	.LM122:
 604 0294 3FEF      		ldi r19,lo8(-1)
 605               	.L108:
 606               	.LM123:
 607 0296 8091 C800 		lds r24,200
 608 029a 85FF      		sbrs r24,5
 609 029c 00C0      		rjmp .L108
 610               	.LM124:
 611 029e 3093 CE00 		sts 206,r19
 612               	.L63:
 613               	.LM125:
 614 02a2 8091 C800 		lds r24,200
 615 02a6 87FF      		sbrs r24,7
 616 02a8 00C0      		rjmp .L63
 617               	.LM126:
 618 02aa 1091 CE00 		lds r17,206
 619               	.LBE135:
 620               	.LBE134:
 621               	.LM127:
 622 02ae 1F3F      		cpi r17,lo8(-1)
 623 02b0 01F4      		brne .L64
 624 02b2 9150      		subi r25,lo8(-(-1))
 625 02b4 01F4      		brne .L108
 626               	.L64:
 627               	.LM128:
 628 02b6 2830      		cpi r18,lo8(8)
 629 02b8 01F0      		breq .L46
 630 02ba 2A33      		cpi r18,lo8(58)
 631 02bc 01F0      		breq .L46
 632               	.LM129:
 633 02be 0E94 0000 		call SendDummyByte
 634               	.LVL13:
 635               	.L46:
 636               	.LM130:
 637 02c2 812F      		mov r24,r17
 638               	/* epilogue start */
 639 02c4 1F91      		pop r17
 640               	.LVL14:
 641 02c6 0895      		ret
 642               	.LFE9:
 644               	.global	SdBeginSingleBlockRead
 646               	SdBeginSingleBlockRead:
 647               	.LFB11:
 648               	.LM131:
 649               	.LVL15:
 650               	/* prologue: function */
 651               	/* frame size = 0 */
 652 02c8 AB01      		movw r20,r22
 653 02ca BC01      		movw r22,r24
 654               	.LM132:
 655 02cc E9E0      		ldi r30,9
 656 02ce 440F      	1:	lsl r20
 657 02d0 551F      		rol r21
 658 02d2 661F      		rol r22
 659 02d4 771F      		rol r23
 660 02d6 EA95      		dec r30
 661 02d8 01F4      		brne 1b
 662               	.LVL16:
 663 02da 81E1      		ldi r24,lo8(17)
 664 02dc 0E94 0000 		call SendSdCommand
 665               	.LVL17:
 666 02e0 90E0      		ldi r25,lo8(0)
 667 02e2 8823      		tst r24
 668 02e4 01F4      		brne .L112
 669 02e6 91E0      		ldi r25,lo8(1)
 670               	.L112:
 671               	.LM133:
 672 02e8 892F      		mov r24,r25
 673               	/* epilogue start */
 674 02ea 0895      		ret
 675               	.LFE11:
 677               	.global	SdBeginSingleBlockWrite
 679               	SdBeginSingleBlockWrite:
 680               	.LFB12:
 681               	.LM134:
 682               	.LVL18:
 683               	/* prologue: function */
 684               	/* frame size = 0 */
 685 02ec AB01      		movw r20,r22
 686 02ee BC01      		movw r22,r24
 687               	.LM135:
 688 02f0 F9E0      		ldi r31,9
 689 02f2 440F      	1:	lsl r20
 690 02f4 551F      		rol r21
 691 02f6 661F      		rol r22
 692 02f8 771F      		rol r23
 693 02fa FA95      		dec r31
 694 02fc 01F4      		brne 1b
 695               	.LVL19:
 696 02fe 88E1      		ldi r24,lo8(24)
 697 0300 0E94 0000 		call SendSdCommand
 698               	.LVL20:
 699 0304 90E0      		ldi r25,lo8(0)
 700 0306 8823      		tst r24
 701 0308 01F4      		brne .L115
 702 030a 91E0      		ldi r25,lo8(1)
 703               	.L115:
 704               	.LM136:
 705 030c 892F      		mov r24,r25
 706               	/* epilogue start */
 707 030e 0895      		ret
 708               	.LFE12:
 710               	.global	SdHandshake
 712               	SdHandshake:
 713               	.LFB10:
 714               	.LM137:
 715 0310 DF93      		push r29
 716 0312 CF93      		push r28
 717 0314 00D0      		rcall .
 718 0316 00D0      		rcall .
 719 0318 CDB7      		in r28,__SP_L__
 720 031a DEB7      		in r29,__SP_H__
 721               	/* prologue: function */
 722               	/* frame size = 4 */
 723               	.LBB136:
 724               	.LBB137:
 725               	.LM138:
 726 031c 5D9A      		sbi 43-32,5
 727 031e 90E0      		ldi r25,lo8(0)
 728               	.LVL21:
 729               	.LBE137:
 730               	.LBE136:
 731               	.LBB138:
 732               	.LBB139:
 733               	.LM139:
 734 0320 2FEF      		ldi r18,lo8(-1)
 735               	.L120:
 736               	.LBE139:
 737               	.LBE138:
 738               	.LM140:
 739 0322 8091 C800 		lds r24,200
 740 0326 8064      		ori r24,lo8(64)
 741 0328 8093 C800 		sts 200,r24
 742               	.L118:
 743               	.LBB141:
 744               	.LBB140:
 745               	.LM141:
 746 032c 8091 C800 		lds r24,200
 747 0330 85FF      		sbrs r24,5
 748 0332 00C0      		rjmp .L118
 749               	.LM142:
 750 0334 2093 CE00 		sts 206,r18
 751               	.L119:
 752               	.LM143:
 753 0338 8091 C800 		lds r24,200
 754 033c 87FF      		sbrs r24,7
 755 033e 00C0      		rjmp .L119
 756               	.LM144:
 757 0340 8091 CE00 		lds r24,206
 758               	.LBE140:
 759               	.LBE141:
 760               	.LM145:
 761 0344 9F5F      		subi r25,lo8(-(1))
 762 0346 9431      		cpi r25,lo8(20)
 763 0348 01F4      		brne .L120
 764               	.L147:
 765               	.LM146:
 766 034a 8091 C800 		lds r24,200
 767 034e 86FF      		sbrs r24,6
 768 0350 00C0      		rjmp .L147
 769               	.LBB142:
 770               	.LBB143:
 771               	.LM147:
 772 0352 5D9A      		sbi 43-32,5
 773               	.LM148:
 774 0354 5D98      		cbi 43-32,5
 775 0356 20E0      		ldi r18,lo8(0)
 776 0358 30E0      		ldi r19,hi8(0)
 777               	.LVL22:
 778               	.LBE143:
 779               	.LBE142:
 780               	.LBB144:
 781               	.LBB145:
 782               	.LM149:
 783 035a 9FEF      		ldi r25,lo8(-1)
 784               	.LVL23:
 785               	.L124:
 786               	.LBE145:
 787               	.LBE144:
 788               	.LM150:
 789 035c 8091 C800 		lds r24,200
 790 0360 8064      		ori r24,lo8(64)
 791 0362 8093 C800 		sts 200,r24
 792               	.L122:
 793               	.LBB147:
 794               	.LBB146:
 795               	.LM151:
 796 0366 8091 C800 		lds r24,200
 797 036a 85FF      		sbrs r24,5
 798 036c 00C0      		rjmp .L122
 799               	.LM152:
 800 036e 9093 CE00 		sts 206,r25
 801               	.L123:
 802               	.LM153:
 803 0372 8091 C800 		lds r24,200
 804 0376 87FF      		sbrs r24,7
 805 0378 00C0      		rjmp .L123
 806               	.LM154:
 807 037a 8091 CE00 		lds r24,206
 808               	.LBE146:
 809               	.LBE147:
 810               	.LM155:
 811 037e 2F5F      		subi r18,lo8(-(1))
 812 0380 3F4F      		sbci r19,hi8(-(1))
 813 0382 82E0      		ldi r24,hi8(512)
 814 0384 2030      		cpi r18,lo8(512)
 815 0386 3807      		cpc r19,r24
 816 0388 01F4      		brne .L124
 817               	.L146:
 818               	.LM156:
 819 038a 8091 C800 		lds r24,200
 820 038e 86FF      		sbrs r24,6
 821 0390 00C0      		rjmp .L146
 822               	.LBB148:
 823               	.LBB149:
 824               	.LM157:
 825 0392 5D9A      		sbi 43-32,5
 826               	.LBE149:
 827               	.LBE148:
 828               	.LM158:
 829 0394 80E0      		ldi r24,lo8(0)
 830 0396 40E0      		ldi r20,lo8(0)
 831 0398 50E0      		ldi r21,hi8(0)
 832 039a 60E0      		ldi r22,hlo8(0)
 833 039c 70E0      		ldi r23,hhi8(0)
 834 039e 0E94 0000 		call SendSdCommand
 835               	.LVL24:
 836               	.L126:
 837               	.LM159:
 838 03a2 8091 C800 		lds r24,200
 839 03a6 86FF      		sbrs r24,6
 840 03a8 00C0      		rjmp .L126
 841               	.LBB150:
 842               	.LBB151:
 843               	.LM160:
 844 03aa 5D9A      		sbi 43-32,5
 845               	.LBE151:
 846               	.LBE150:
 847               	.LM161:
 848 03ac 80E0      		ldi r24,lo8(0)
 849 03ae 40E0      		ldi r20,lo8(0)
 850 03b0 50E0      		ldi r21,hi8(0)
 851 03b2 60E0      		ldi r22,hlo8(0)
 852 03b4 70E0      		ldi r23,hhi8(0)
 853 03b6 0E94 0000 		call SendSdCommand
 854 03ba 8130      		cpi r24,lo8(1)
 855 03bc 01F0      		breq .+2
 856 03be 00C0      		rjmp .L127
 857               	.LBB152:
 858               	.LBB153:
 859               	.LM162:
 860 03c0 5D9A      		sbi 43-32,5
 861               	.LBE153:
 862               	.LBE152:
 863               	.LM163:
 864 03c2 88E0      		ldi r24,lo8(8)
 865 03c4 4AEA      		ldi r20,lo8(426)
 866 03c6 51E0      		ldi r21,hi8(426)
 867 03c8 60E0      		ldi r22,hlo8(426)
 868 03ca 70E0      		ldi r23,hhi8(426)
 869 03cc 0E94 0000 		call SendSdCommand
 870 03d0 8130      		cpi r24,lo8(1)
 871 03d2 01F0      		breq .+2
 872 03d4 00C0      		rjmp .L128
 873 03d6 FE01      		movw r30,r28
 874 03d8 3196      		adiw r30,1
 875               	.LBB154:
 876               	.LBB155:
 877               	.LM164:
 878 03da 9FEF      		ldi r25,lo8(-1)
 879               	.LBE155:
 880               	.LBE154:
 881               	.LM165:
 882 03dc 9E01      		movw r18,r28
 883 03de 2B5F      		subi r18,lo8(-(5))
 884 03e0 3F4F      		sbci r19,hi8(-(5))
 885               	.L162:
 886               	.LBB157:
 887               	.LBB156:
 888               	.LM166:
 889 03e2 8091 C800 		lds r24,200
 890 03e6 85FF      		sbrs r24,5
 891 03e8 00C0      		rjmp .L162
 892               	.LM167:
 893 03ea 9093 CE00 		sts 206,r25
 894               	.L130:
 895               	.LM168:
 896 03ee 8091 C800 		lds r24,200
 897 03f2 87FF      		sbrs r24,7
 898 03f4 00C0      		rjmp .L130
 899               	.LM169:
 900 03f6 8091 CE00 		lds r24,206
 901               	.LBE156:
 902               	.LBE157:
 903               	.LM170:
 904 03fa 8193      		st Z+,r24
 905               	.LM171:
 906 03fc E217      		cp r30,r18
 907 03fe F307      		cpc r31,r19
 908 0400 01F4      		brne .L162
 909               	.LM172:
 910 0402 0E94 0000 		call SendDummyByte
 911               	.LBB158:
 912               	.LBB159:
 913               	.LM173:
 914 0406 5D9A      		sbi 43-32,5
 915               	.LBE159:
 916               	.LBE158:
 917               	.LM174:
 918 0408 8B81      		ldd r24,Y+3
 919 040a 8130      		cpi r24,lo8(1)
 920 040c 01F0      		breq .+2
 921 040e 00C0      		rjmp .L127
 922 0410 8C81      		ldd r24,Y+4
 923 0412 8A3A      		cpi r24,lo8(-86)
 924 0414 01F0      		breq .+2
 925 0416 00C0      		rjmp .L127
 926               	.LM175:
 927 0418 83E0      		ldi r24,lo8(3)
 928 041a 64EC      		ldi r22,lo8(1220)
 929 041c 74E0      		ldi r23,hi8(1220)
 930 041e 0E94 0000 		call SetTimer
 931 0422 00C0      		rjmp .L131
 932               	.L133:
 933               	.LBB160:
 934               	.LBB161:
 935               	.LM176:
 936 0424 5D9A      		sbi 43-32,5
 937               	.LBE161:
 938               	.LBE160:
 939               	.LM177:
 940 0426 0E94 0000 		call HandleSoftclock
 941               	.L131:
 942               	.LM178:
 943 042a 83E0      		ldi r24,lo8(3)
 944 042c 0E94 0000 		call CheckTimer
 945 0430 8823      		tst r24
 946 0432 01F4      		brne .L132
 947 0434 89EA      		ldi r24,lo8(-87)
 948 0436 40E0      		ldi r20,lo8(0)
 949 0438 50E0      		ldi r21,hi8(0)
 950 043a 60E0      		ldi r22,hlo8(0)
 951 043c 70E0      		ldi r23,hhi8(0)
 952 043e 0E94 0000 		call SendSdCommand
 953 0442 8823      		tst r24
 954 0444 01F4      		brne .L133
 955               	.L132:
 956               	.LM179:
 957 0446 83E0      		ldi r24,lo8(3)
 958 0448 0E94 0000 		call CheckTimer
 959 044c 8823      		tst r24
 960 044e 01F0      		breq .L160
 961 0450 00C0      		rjmp .L127
 962               	.L136:
 963               	.LM180:
 964 0452 0E94 0000 		call SendDummyByte
 965               	.LM181:
 966 0456 0E94 0000 		call HandleSoftclock
 967               	.LBB162:
 968               	.LBB163:
 969               	.LM182:
 970 045a 5D9A      		sbi 43-32,5
 971               	.L160:
 972               	.LBE163:
 973               	.LBE162:
 974               	.LM183:
 975 045c 83E0      		ldi r24,lo8(3)
 976 045e 0E94 0000 		call CheckTimer
 977 0462 8823      		tst r24
 978 0464 01F4      		brne .L135
 979 0466 8AE3      		ldi r24,lo8(58)
 980 0468 40E0      		ldi r20,lo8(0)
 981 046a 50E0      		ldi r21,hi8(0)
 982 046c 60E0      		ldi r22,hlo8(0)
 983 046e 70E0      		ldi r23,hhi8(0)
 984 0470 0E94 0000 		call SendSdCommand
 985 0474 8823      		tst r24
 986 0476 01F4      		brne .L136
 987               	.L135:
 988               	.LM184:
 989 0478 83E0      		ldi r24,lo8(3)
 990 047a 0E94 0000 		call CheckTimer
 991 047e 8823      		tst r24
 992 0480 01F0      		breq .+2
 993 0482 00C0      		rjmp .L127
 994 0484 90E0      		ldi r25,lo8(0)
 995               	.LVL25:
 996               	.LBB164:
 997               	.LBB165:
 998               	.LM185:
 999 0486 2FEF      		ldi r18,lo8(-1)
 1000               	.L163:
 1001               	.LM186:
 1002 0488 8091 C800 		lds r24,200
 1003 048c 85FF      		sbrs r24,5
 1004 048e 00C0      		rjmp .L163
 1005               	.LM187:
 1006 0490 2093 CE00 		sts 206,r18
 1007               	.L138:
 1008               	.LM188:
 1009 0494 8091 C800 		lds r24,200
 1010 0498 87FF      		sbrs r24,7
 1011 049a 00C0      		rjmp .L138
 1012               	.LM189:
 1013 049c 8091 CE00 		lds r24,206
 1014               	.LBE165:
 1015               	.LBE164:
 1016               	.LM190:
 1017 04a0 9F5F      		subi r25,lo8(-(1))
 1018 04a2 9430      		cpi r25,lo8(4)
 1019 04a4 01F4      		brne .L163
 1020               	.LM191:
 1021 04a6 0E94 0000 		call SendDummyByte
 1022               	.LVL26:
 1023               	.LBB166:
 1024               	.LBB167:
 1025               	.LM192:
 1026 04aa 5D9A      		sbi 43-32,5
 1027               	.LBE167:
 1028               	.LBE166:
 1029               	.LM193:
 1030 04ac 80E1      		ldi r24,lo8(16)
 1031 04ae 40E0      		ldi r20,lo8(512)
 1032 04b0 52E0      		ldi r21,hi8(512)
 1033 04b2 60E0      		ldi r22,hlo8(512)
 1034 04b4 70E0      		ldi r23,hhi8(512)
 1035 04b6 0E94 0000 		call SendSdCommand
 1036               	.LBB168:
 1037               	.LBB169:
 1038               	.LM194:
 1039 04ba 5D9A      		sbi 43-32,5
 1040               	.LBE169:
 1041               	.LBE168:
 1042               	.LM195:
 1043 04bc 0E94 0000 		call SendDummyByte
 1044 04c0 00C0      		rjmp .L164
 1045               	.L128:
 1046               	.LM196:
 1047 04c2 0E94 0000 		call SendDummyByte
 1048               	.LBB170:
 1049               	.LBB171:
 1050               	.LM197:
 1051 04c6 5D9A      		sbi 43-32,5
 1052               	.LBE171:
 1053               	.LBE170:
 1054               	.LM198:
 1055 04c8 89EA      		ldi r24,lo8(-87)
 1056 04ca 40E0      		ldi r20,lo8(0)
 1057 04cc 50E0      		ldi r21,hi8(0)
 1058 04ce 60E0      		ldi r22,hlo8(0)
 1059 04d0 70E0      		ldi r23,hhi8(0)
 1060 04d2 0E94 0000 		call SendSdCommand
 1061 04d6 8230      		cpi r24,lo8(2)
 1062 04d8 00F4      		brsh .L127
 1063               	.LBB172:
 1064               	.LBB173:
 1065               	.LM199:
 1066 04da 5D9A      		sbi 43-32,5
 1067               	.LBE173:
 1068               	.LBE172:
 1069               	.LM200:
 1070 04dc 83E0      		ldi r24,lo8(3)
 1071 04de 64EC      		ldi r22,lo8(1220)
 1072 04e0 74E0      		ldi r23,hi8(1220)
 1073 04e2 0E94 0000 		call SetTimer
 1074 04e6 00C0      		rjmp .L140
 1075               	.L142:
 1076               	.LM201:
 1077 04e8 0E94 0000 		call HandleSoftclock
 1078               	.LBB174:
 1079               	.LBB175:
 1080               	.LM202:
 1081 04ec 5D9A      		sbi 43-32,5
 1082               	.L140:
 1083               	.LBE175:
 1084               	.LBE174:
 1085               	.LM203:
 1086 04ee 83E0      		ldi r24,lo8(3)
 1087 04f0 0E94 0000 		call CheckTimer
 1088 04f4 8823      		tst r24
 1089 04f6 01F4      		brne .L141
 1090 04f8 89EA      		ldi r24,lo8(-87)
 1091 04fa 40E0      		ldi r20,lo8(0)
 1092 04fc 50E0      		ldi r21,hi8(0)
 1093 04fe 60E0      		ldi r22,hlo8(0)
 1094 0500 70E0      		ldi r23,hhi8(0)
 1095 0502 0E94 0000 		call SendSdCommand
 1096 0506 8823      		tst r24
 1097 0508 01F4      		brne .L142
 1098               	.L141:
 1099               	.LM204:
 1100 050a 83E0      		ldi r24,lo8(3)
 1101 050c 0E94 0000 		call CheckTimer
 1102 0510 8823      		tst r24
 1103 0512 01F4      		brne .L127
 1104               	.LM205:
 1105 0514 80E1      		ldi r24,lo8(16)
 1106 0516 40E0      		ldi r20,lo8(512)
 1107 0518 52E0      		ldi r21,hi8(512)
 1108 051a 60E0      		ldi r22,hlo8(512)
 1109 051c 70E0      		ldi r23,hhi8(512)
 1110 051e 0E94 0000 		call SendSdCommand
 1111               	.LBB176:
 1112               	.LBB177:
 1113               	.LM206:
 1114 0522 5D9A      		sbi 43-32,5
 1115               	.L164:
 1116 0524 81E0      		ldi r24,lo8(1)
 1117               	.LVL27:
 1118 0526 00C0      		rjmp .L139
 1119               	.LVL28:
 1120               	.L127:
 1121 0528 80E0      		ldi r24,lo8(0)
 1122               	.LVL29:
 1123               	.L139:
 1124               	.LBE177:
 1125               	.LBE176:
 1126               	.LBB178:
 1127               	.LBB179:
 1128 052a 5D9A      		sbi 43-32,5
 1129               	.LVL30:
 1130               	/* epilogue start */
 1131               	.LBE179:
 1132               	.LBE178:
 1133               	.LM207:
 1134 052c 0F90      		pop __tmp_reg__
 1135 052e 0F90      		pop __tmp_reg__
 1136 0530 0F90      		pop __tmp_reg__
 1137 0532 0F90      		pop __tmp_reg__
 1138 0534 CF91      		pop r28
 1139 0536 DF91      		pop r29
 1140 0538 0895      		ret
 1141               	.LFE10:
 1239               	.Letext0:
DEFINED SYMBOLS
                            *ABS*:00000000 microSD.c
     /tmp/ccfeoaBJ.s:2      *ABS*:0000003f __SREG__
     /tmp/ccfeoaBJ.s:3      *ABS*:0000003e __SP_H__
     /tmp/ccfeoaBJ.s:4      *ABS*:0000003d __SP_L__
     /tmp/ccfeoaBJ.s:5      *ABS*:00000034 __CCP__
     /tmp/ccfeoaBJ.s:6      *ABS*:00000000 __tmp_reg__
     /tmp/ccfeoaBJ.s:7      *ABS*:00000001 __zero_reg__
     /tmp/ccfeoaBJ.s:18     .text:00000000 UnInitSdInterface
     /tmp/ccfeoaBJ.s:46     .text:0000001c InitSdInterface
     /tmp/ccfeoaBJ.s:86     .text:0000004a EndSdTransfer
     /tmp/ccfeoaBJ.s:100    .text:0000004e StartSdTransfer
     /tmp/ccfeoaBJ.s:116    .text:00000054 TransferSdByte
     /tmp/ccfeoaBJ.s:144    .text:00000070 SendDummyByte
     /tmp/ccfeoaBJ.s:184    .text:0000009e SendSdCommand
     /tmp/ccfeoaBJ.s:646    .text:000002c8 SdBeginSingleBlockRead
     /tmp/ccfeoaBJ.s:679    .text:000002ec SdBeginSingleBlockWrite
     /tmp/ccfeoaBJ.s:712    .text:00000310 SdHandshake

UNDEFINED SYMBOLS
SetTimer
HandleSoftclock
CheckTimer
