   1               		.file	"WTPA.c"
   2               	__SREG__ = 0x3f
   3               	__SP_H__ = 0x3e
   4               	__SP_L__ = 0x3d
   5               	__CCP__  = 0x34
   6               	__tmp_reg__ = 0
   7               	__zero_reg__ = 1
  15               	.Ltext0:
  17               	UpdateAudioChannel0:
  18               	.LFB3:
  19               	.LM1:
  20               	/* prologue: function */
  21               	/* frame size = 0 */
  22               	.LM2:
  23 0000 8091 0000 		lds r24,bankStates
  24 0004 8330      		cpi r24,lo8(3)
  25 0006 01F0      		breq .L5
  26 0008 8430      		cpi r24,lo8(4)
  27 000a 00F4      		brsh .L8
  28 000c 8130      		cpi r24,lo8(1)
  29 000e 01F0      		breq .L3
  30 0010 8230      		cpi r24,lo8(2)
  31 0012 01F0      		breq .+2
  32 0014 00C0      		rjmp .L41
  33 0016 00C0      		rjmp .L45
  34               	.L8:
  35 0018 8430      		cpi r24,lo8(4)
  36 001a 01F4      		brne .+2
  37 001c 00C0      		rjmp .L6
  38 001e 8530      		cpi r24,lo8(5)
  39 0020 01F0      		breq .+2
  40 0022 00C0      		rjmp .L41
  41 0024 00C0      		rjmp .L7
  42               	.L3:
  43               	.LM3:
  44 0026 4091 0000 		lds r20,sawtooth.1595
  45               	.LVL0:
  46 002a 4F5F      		subi r20,lo8(-(1))
  47 002c 4093 0000 		sts sawtooth.1595,r20
  48 0030 4150      		subi r20,lo8(-(-1))
  49 0032 00C0      		rjmp .L9
  50               	.LVL1:
  51               	.L45:
  52               	.LM4:
  53 0034 4091 0000 		lds r20,adcByte
  54               	.LVL2:
  55 0038 00C0      		rjmp .L44
  56               	.LVL3:
  57               	.L5:
  58               	.LM5:
  59 003a 8FEF      		ldi r24,lo8(-1)
  60 003c 84B9      		out 36-32,r24
  61               	.LM6:
  62 003e 8091 0000 		lds r24,bankStates+30
  63 0042 9091 0000 		lds r25,(bankStates+30)+1
  64 0046 A091 0000 		lds r26,(bankStates+30)+2
  65 004a B091 0000 		lds r27,(bankStates+30)+3
  66 004e 85B9      		out 37-32,r24
  67               	.LM7:
  68 0050 139A      		sbi 34-32,3
  69               	.LM8:
  70 0052 1398      		cbi 34-32,3
  71               	.LM9:
  72 0054 8091 0000 		lds r24,bankStates+30
  73 0058 9091 0000 		lds r25,(bankStates+30)+1
  74 005c A091 0000 		lds r26,(bankStates+30)+2
  75 0060 B091 0000 		lds r27,(bankStates+30)+3
  76 0064 892F      		mov r24,r25
  77 0066 9A2F      		mov r25,r26
  78 0068 AB2F      		mov r26,r27
  79 006a BB27      		clr r27
  80 006c 85B9      		out 37-32,r24
  81               	.LM10:
  82 006e 149A      		sbi 34-32,4
  83               	.LM11:
  84 0070 1498      		cbi 34-32,4
  85               	.LM12:
  86 0072 8091 0000 		lds r24,bankStates+30
  87 0076 9091 0000 		lds r25,(bankStates+30)+1
  88 007a A091 0000 		lds r26,(bankStates+30)+2
  89 007e B091 0000 		lds r27,(bankStates+30)+3
  90 0082 CD01      		movw r24,r26
  91 0084 AA27      		clr r26
  92 0086 BB27      		clr r27
  93 0088 8770      		andi r24,lo8(7)
  94 008a 8868      		ori r24,lo8(-120)
  95 008c 88B9      		out 40-32,r24
  96               	.LM13:
  97 008e 8091 0000 		lds r24,adcByte
  98 0092 85B9      		out 37-32,r24
  99               	.LM14:
 100 0094 8091 0000 		lds r24,bankStates+30
 101 0098 9091 0000 		lds r25,(bankStates+30)+1
 102 009c A091 0000 		lds r26,(bankStates+30)+2
 103 00a0 B091 0000 		lds r27,(bankStates+30)+3
 104 00a4 0196      		adiw r24,1
 105 00a6 A11D      		adc r26,__zero_reg__
 106 00a8 B11D      		adc r27,__zero_reg__
 107 00aa 8093 0000 		sts bankStates+30,r24
 108 00ae 9093 0000 		sts (bankStates+30)+1,r25
 109 00b2 A093 0000 		sts (bankStates+30)+2,r26
 110 00b6 B093 0000 		sts (bankStates+30)+3,r27
 111               	.LM15:
 112 00ba 8091 0000 		lds r24,bankStates+30
 113 00be 9091 0000 		lds r25,(bankStates+30)+1
 114 00c2 A091 0000 		lds r26,(bankStates+30)+2
 115 00c6 B091 0000 		lds r27,(bankStates+30)+3
 116 00ca 8093 0000 		sts bankStates+11,r24
 117 00ce 9093 0000 		sts (bankStates+11)+1,r25
 118 00d2 A093 0000 		sts (bankStates+11)+2,r26
 119 00d6 B093 0000 		sts (bankStates+11)+3,r27
 120               	.LM16:
 121 00da 8091 0000 		lds r24,bankStates+30
 122 00de 9091 0000 		lds r25,(bankStates+30)+1
 123 00e2 A091 0000 		lds r26,(bankStates+30)+2
 124 00e6 B091 0000 		lds r27,(bankStates+30)+3
 125 00ea 8093 0000 		sts bankStates+19,r24
 126 00ee 9093 0000 		sts (bankStates+19)+1,r25
 127 00f2 A093 0000 		sts (bankStates+19)+2,r26
 128 00f6 B093 0000 		sts (bankStates+19)+3,r27
 129               	.LM17:
 130 00fa 2091 0000 		lds r18,bankStates+11
 131 00fe 3091 0000 		lds r19,(bankStates+11)+1
 132 0102 4091 0000 		lds r20,(bankStates+11)+2
 133 0106 5091 0000 		lds r21,(bankStates+11)+3
 134 010a 8091 0000 		lds r24,bankStates+45
 135 010e 9091 0000 		lds r25,(bankStates+45)+1
 136 0112 A091 0000 		lds r26,(bankStates+45)+2
 137 0116 B091 0000 		lds r27,(bankStates+45)+3
 138 011a 2817      		cp r18,r24
 139 011c 3907      		cpc r19,r25
 140 011e 4A07      		cpc r20,r26
 141 0120 5B07      		cpc r21,r27
 142 0122 00F0      		brlo .L10
 143               	.LM18:
 144 0124 1092 0000 		sts bankStates,__zero_reg__
 145               	.LM19:
 146 0128 81E0      		ldi r24,lo8(1)
 147 012a 8093 0000 		sts outOfRam,r24
 148               	.L10:
 149               	.LM20:
 150 012e 1198      		cbi 34-32,1
 151               	.LM21:
 152 0130 119A      		sbi 34-32,1
 153               	.L41:
 154 0132 40E0      		ldi r20,lo8(0)
 155               	.LVL4:
 156 0134 00C0      		rjmp .L9
 157               	.LVL5:
 158               	.L6:
 159               	.LM22:
 160 0136 8091 0000 		lds r24,bankStates+30
 161 013a 9091 0000 		lds r25,(bankStates+30)+1
 162 013e A091 0000 		lds r26,(bankStates+30)+2
 163 0142 B091 0000 		lds r27,(bankStates+30)+3
 164 0146 85B9      		out 37-32,r24
 165               	.LM23:
 166 0148 139A      		sbi 34-32,3
 167               	.LM24:
 168 014a 1398      		cbi 34-32,3
 169               	.LM25:
 170 014c 8091 0000 		lds r24,bankStates+30
 171 0150 9091 0000 		lds r25,(bankStates+30)+1
 172 0154 A091 0000 		lds r26,(bankStates+30)+2
 173 0158 B091 0000 		lds r27,(bankStates+30)+3
 174 015c 892F      		mov r24,r25
 175 015e 9A2F      		mov r25,r26
 176 0160 AB2F      		mov r26,r27
 177 0162 BB27      		clr r27
 178 0164 85B9      		out 37-32,r24
 179               	.LM26:
 180 0166 149A      		sbi 34-32,4
 181               	.LM27:
 182 0168 1498      		cbi 34-32,4
 183               	.LM28:
 184 016a 8091 0000 		lds r24,bankStates+30
 185 016e 9091 0000 		lds r25,(bankStates+30)+1
 186 0172 A091 0000 		lds r26,(bankStates+30)+2
 187 0176 B091 0000 		lds r27,(bankStates+30)+3
 188 017a CD01      		movw r24,r26
 189 017c AA27      		clr r26
 190 017e BB27      		clr r27
 191 0180 8770      		andi r24,lo8(7)
 192 0182 8868      		ori r24,lo8(-120)
 193 0184 88B9      		out 40-32,r24
 194               	.LM29:
 195 0186 14B8      		out 36-32,__zero_reg__
 196               	.LM30:
 197 0188 1298      		cbi 34-32,2
 198               	.LM31:
 199 018a 8091 0000 		lds r24,bankStates+5
 200 018e 8823      		tst r24
 201 0190 01F4      		brne .+2
 202 0192 00C0      		rjmp .L11
 203               	.LM32:
 204 0194 8091 0000 		lds r24,sliceRemaining
 205 0198 9091 0000 		lds r25,(sliceRemaining)+1
 206 019c A091 0000 		lds r26,(sliceRemaining)+2
 207 01a0 B091 0000 		lds r27,(sliceRemaining)+3
 208 01a4 0097      		sbiw r24,0
 209 01a6 A105      		cpc r26,__zero_reg__
 210 01a8 B105      		cpc r27,__zero_reg__
 211 01aa 01F0      		breq .L12
 212               	.LM33:
 213 01ac 8091 0000 		lds r24,bankStates+30
 214 01b0 9091 0000 		lds r25,(bankStates+30)+1
 215 01b4 A091 0000 		lds r26,(bankStates+30)+2
 216 01b8 B091 0000 		lds r27,(bankStates+30)+3
 217 01bc 0196      		adiw r24,1
 218 01be A11D      		adc r26,__zero_reg__
 219 01c0 B11D      		adc r27,__zero_reg__
 220 01c2 8093 0000 		sts bankStates+30,r24
 221 01c6 9093 0000 		sts (bankStates+30)+1,r25
 222 01ca A093 0000 		sts (bankStates+30)+2,r26
 223 01ce B093 0000 		sts (bankStates+30)+3,r27
 224               	.LM34:
 225 01d2 8091 0000 		lds r24,sliceRemaining
 226 01d6 9091 0000 		lds r25,(sliceRemaining)+1
 227 01da A091 0000 		lds r26,(sliceRemaining)+2
 228 01de B091 0000 		lds r27,(sliceRemaining)+3
 229 01e2 0197      		sbiw r24,1
 230 01e4 A109      		sbc r26,__zero_reg__
 231 01e6 B109      		sbc r27,__zero_reg__
 232 01e8 8093 0000 		sts sliceRemaining,r24
 233 01ec 9093 0000 		sts (sliceRemaining)+1,r25
 234 01f0 A093 0000 		sts (sliceRemaining)+2,r26
 235 01f4 B093 0000 		sts (sliceRemaining)+3,r27
 236 01f8 00C0      		rjmp .L13
 237               	.L12:
 238               	.LM35:
 239 01fa 8091 0000 		lds r24,sliceSize
 240 01fe 9091 0000 		lds r25,(sliceSize)+1
 241 0202 A091 0000 		lds r26,(sliceSize)+2
 242 0206 B091 0000 		lds r27,(sliceSize)+3
 243 020a 8093 0000 		sts sliceRemaining,r24
 244 020e 9093 0000 		sts (sliceRemaining)+1,r25
 245 0212 A093 0000 		sts (sliceRemaining)+2,r26
 246 0216 B093 0000 		sts (sliceRemaining)+3,r27
 247               	.LM36:
 248 021a 8091 0000 		lds r24,granularPositionArrayPointer
 249 021e 8F5F      		subi r24,lo8(-(1))
 250 0220 8093 0000 		sts granularPositionArrayPointer,r24
 251               	.LM37:
 252 0224 9091 0000 		lds r25,granularPositionArrayPointer
 253 0228 8091 0000 		lds r24,bankStates+5
 254 022c 9817      		cp r25,r24
 255 022e 01F4      		brne .L14
 256               	.LM38:
 257 0230 1092 0000 		sts granularPositionArrayPointer,__zero_reg__
 258               	.L14:
 259               	.LM39:
 260 0234 E091 0000 		lds r30,granularPositionArrayPointer
 261 0238 2091 0000 		lds r18,sliceSize
 262 023c 3091 0000 		lds r19,(sliceSize)+1
 263 0240 4091 0000 		lds r20,(sliceSize)+2
 264 0244 5091 0000 		lds r21,(sliceSize)+3
 265 0248 F0E0      		ldi r31,lo8(0)
 266 024a E050      		subi r30,lo8(-(granularPositionArray))
 267 024c F040      		sbci r31,hi8(-(granularPositionArray))
 268 024e 6081      		ld r22,Z
 269 0250 70E0      		ldi r23,lo8(0)
 270 0252 80E0      		ldi r24,lo8(0)
 271 0254 90E0      		ldi r25,hi8(0)
 272 0256 0E94 0000 		call __mulsi3
 273 025a 6093 0000 		sts bankStates+30,r22
 274 025e 7093 0000 		sts (bankStates+30)+1,r23
 275 0262 8093 0000 		sts (bankStates+30)+2,r24
 276 0266 9093 0000 		sts (bankStates+30)+3,r25
 277 026a 00C0      		rjmp .L13
 278               	.L11:
 279               	.LM40:
 280 026c 8091 0000 		lds r24,bankStates+4
 281 0270 8823      		tst r24
 282 0272 01F0      		breq .+2
 283 0274 00C0      		rjmp .L15
 284               	.LM41:
 285 0276 2091 0000 		lds r18,bankStates+30
 286 027a 3091 0000 		lds r19,(bankStates+30)+1
 287 027e 4091 0000 		lds r20,(bankStates+30)+2
 288 0282 5091 0000 		lds r21,(bankStates+30)+3
 289 0286 8091 0000 		lds r24,bankStates+23
 290 028a 9091 0000 		lds r25,(bankStates+23)+1
 291 028e A091 0000 		lds r26,(bankStates+23)+2
 292 0292 B091 0000 		lds r27,(bankStates+23)+3
 293 0296 2817      		cp r18,r24
 294 0298 3907      		cpc r19,r25
 295 029a 4A07      		cpc r20,r26
 296 029c 5B07      		cpc r21,r27
 297 029e 01F4      		brne .L16
 298 02a0 8091 0000 		lds r24,bankStates+1
 299 02a4 8130      		cpi r24,lo8(1)
 300 02a6 01F4      		brne .+2
 301 02a8 00C0      		rjmp .L37
 302               	.L16:
 303               	.LM42:
 304 02aa 2091 0000 		lds r18,bankStates+30
 305 02ae 3091 0000 		lds r19,(bankStates+30)+1
 306 02b2 4091 0000 		lds r20,(bankStates+30)+2
 307 02b6 5091 0000 		lds r21,(bankStates+30)+3
 308 02ba 8091 0000 		lds r24,bankStates+23
 309 02be 9091 0000 		lds r25,(bankStates+23)+1
 310 02c2 A091 0000 		lds r26,(bankStates+23)+2
 311 02c6 B091 0000 		lds r27,(bankStates+23)+3
 312 02ca 2817      		cp r18,r24
 313 02cc 3907      		cpc r19,r25
 314 02ce 4A07      		cpc r20,r26
 315 02d0 5B07      		cpc r21,r27
 316 02d2 01F4      		brne .L17
 317               	.LM43:
 318 02d4 8091 0000 		lds r24,bankStates+19
 319 02d8 9091 0000 		lds r25,(bankStates+19)+1
 320 02dc A091 0000 		lds r26,(bankStates+19)+2
 321 02e0 B091 0000 		lds r27,(bankStates+19)+3
 322 02e4 00C0      		rjmp .L38
 323               	.L17:
 324               	.LM44:
 325 02e6 2091 0000 		lds r18,bankStates+30
 326 02ea 3091 0000 		lds r19,(bankStates+30)+1
 327 02ee 4091 0000 		lds r20,(bankStates+30)+2
 328 02f2 5091 0000 		lds r21,(bankStates+30)+3
 329 02f6 8091 0000 		lds r24,bankStates+15
 330 02fa 9091 0000 		lds r25,(bankStates+15)+1
 331 02fe A091 0000 		lds r26,(bankStates+15)+2
 332 0302 B091 0000 		lds r27,(bankStates+15)+3
 333 0306 2817      		cp r18,r24
 334 0308 3907      		cpc r19,r25
 335 030a 4A07      		cpc r20,r26
 336 030c 5B07      		cpc r21,r27
 337 030e 01F4      		brne .L18
 338               	.LM45:
 339 0310 8091 0000 		lds r24,bankStates+11
 340 0314 9091 0000 		lds r25,(bankStates+11)+1
 341 0318 A091 0000 		lds r26,(bankStates+11)+2
 342 031c B091 0000 		lds r27,(bankStates+11)+3
 343 0320 00C0      		rjmp .L38
 344               	.L18:
 345               	.LM46:
 346 0322 8091 0000 		lds r24,bankStates+30
 347 0326 9091 0000 		lds r25,(bankStates+30)+1
 348 032a A091 0000 		lds r26,(bankStates+30)+2
 349 032e B091 0000 		lds r27,(bankStates+30)+3
 350 0332 0197      		sbiw r24,1
 351 0334 A109      		sbc r26,__zero_reg__
 352 0336 B109      		sbc r27,__zero_reg__
 353 0338 00C0      		rjmp .L38
 354               	.L15:
 355               	.LM47:
 356 033a 2091 0000 		lds r18,bankStates+30
 357 033e 3091 0000 		lds r19,(bankStates+30)+1
 358 0342 4091 0000 		lds r20,(bankStates+30)+2
 359 0346 5091 0000 		lds r21,(bankStates+30)+3
 360 034a 8091 0000 		lds r24,bankStates+19
 361 034e 9091 0000 		lds r25,(bankStates+19)+1
 362 0352 A091 0000 		lds r26,(bankStates+19)+2
 363 0356 B091 0000 		lds r27,(bankStates+19)+3
 364 035a 2817      		cp r18,r24
 365 035c 3907      		cpc r19,r25
 366 035e 4A07      		cpc r20,r26
 367 0360 5B07      		cpc r21,r27
 368 0362 01F4      		brne .L19
 369 0364 8091 0000 		lds r24,bankStates+1
 370 0368 8130      		cpi r24,lo8(1)
 371 036a 01F4      		brne .L19
 372               	.L37:
 373               	.LM48:
 374 036c 1092 0000 		sts bankStates,__zero_reg__
 375               	.LM49:
 376 0370 1092 0000 		sts bankStates+8,__zero_reg__
 377 0374 00C0      		rjmp .L13
 378               	.L19:
 379               	.LM50:
 380 0376 2091 0000 		lds r18,bankStates+30
 381 037a 3091 0000 		lds r19,(bankStates+30)+1
 382 037e 4091 0000 		lds r20,(bankStates+30)+2
 383 0382 5091 0000 		lds r21,(bankStates+30)+3
 384 0386 8091 0000 		lds r24,bankStates+19
 385 038a 9091 0000 		lds r25,(bankStates+19)+1
 386 038e A091 0000 		lds r26,(bankStates+19)+2
 387 0392 B091 0000 		lds r27,(bankStates+19)+3
 388 0396 2817      		cp r18,r24
 389 0398 3907      		cpc r19,r25
 390 039a 4A07      		cpc r20,r26
 391 039c 5B07      		cpc r21,r27
 392 039e 01F4      		brne .L20
 393               	.LM51:
 394 03a0 8091 0000 		lds r24,bankStates+23
 395 03a4 9091 0000 		lds r25,(bankStates+23)+1
 396 03a8 A091 0000 		lds r26,(bankStates+23)+2
 397 03ac B091 0000 		lds r27,(bankStates+23)+3
 398 03b0 00C0      		rjmp .L38
 399               	.L20:
 400               	.LM52:
 401 03b2 2091 0000 		lds r18,bankStates+30
 402 03b6 3091 0000 		lds r19,(bankStates+30)+1
 403 03ba 4091 0000 		lds r20,(bankStates+30)+2
 404 03be 5091 0000 		lds r21,(bankStates+30)+3
 405 03c2 8091 0000 		lds r24,bankStates+11
 406 03c6 9091 0000 		lds r25,(bankStates+11)+1
 407 03ca A091 0000 		lds r26,(bankStates+11)+2
 408 03ce B091 0000 		lds r27,(bankStates+11)+3
 409 03d2 2817      		cp r18,r24
 410 03d4 3907      		cpc r19,r25
 411 03d6 4A07      		cpc r20,r26
 412 03d8 5B07      		cpc r21,r27
 413 03da 01F4      		brne .L21
 414               	.LM53:
 415 03dc 8091 0000 		lds r24,bankStates+15
 416 03e0 9091 0000 		lds r25,(bankStates+15)+1
 417 03e4 A091 0000 		lds r26,(bankStates+15)+2
 418 03e8 B091 0000 		lds r27,(bankStates+15)+3
 419 03ec 00C0      		rjmp .L38
 420               	.L21:
 421               	.LM54:
 422 03ee 8091 0000 		lds r24,bankStates+30
 423 03f2 9091 0000 		lds r25,(bankStates+30)+1
 424 03f6 A091 0000 		lds r26,(bankStates+30)+2
 425 03fa B091 0000 		lds r27,(bankStates+30)+3
 426 03fe 0196      		adiw r24,1
 427 0400 A11D      		adc r26,__zero_reg__
 428 0402 B11D      		adc r27,__zero_reg__
 429               	.L38:
 430 0404 8093 0000 		sts bankStates+30,r24
 431 0408 9093 0000 		sts (bankStates+30)+1,r25
 432 040c A093 0000 		sts (bankStates+30)+2,r26
 433 0410 B093 0000 		sts (bankStates+30)+3,r27
 434               	.L13:
 435               	.LM55:
 436 0414 43B1      		in r20,35-32
 437               	.LVL6:
 438               	.LM56:
 439 0416 129A      		sbi 34-32,2
 440               	.LM57:
 441 0418 8FEF      		ldi r24,lo8(-1)
 442 041a 84B9      		out 36-32,r24
 443               	.L44:
 444               	.LM58:
 445 041c 8091 0000 		lds r24,bankStates+7
 446 0420 8823      		tst r24
 447 0422 01F4      		brne .+2
 448 0424 00C0      		rjmp .L9
 449               	.LM59:
 450 0426 4058      		subi r20,lo8(-(-128))
 451               	.LM60:
 452 0428 2091 0000 		lds r18,bankStates+7
 453 042c 8FEF      		ldi r24,lo8(255)
 454 042e 90E0      		ldi r25,hi8(255)
 455 0430 00C0      		rjmp 2f
 456 0432 880F      	1:	lsl r24
 457 0434 991F      		rol r25
 458 0436 2A95      	2:	dec r18
 459 0438 02F4      		brpl 1b
 460 043a 4823      		and r20,r24
 461               	.LM61:
 462 043c 4058      		subi r20,lo8(-(-128))
 463 043e 00C0      		rjmp .L9
 464               	.LVL7:
 465               	.L7:
 466               	.LM62:
 467 0440 8091 0000 		lds r24,bankStates+30
 468 0444 9091 0000 		lds r25,(bankStates+30)+1
 469 0448 A091 0000 		lds r26,(bankStates+30)+2
 470 044c B091 0000 		lds r27,(bankStates+30)+3
 471 0450 85B9      		out 37-32,r24
 472               	.LM63:
 473 0452 139A      		sbi 34-32,3
 474               	.LM64:
 475 0454 1398      		cbi 34-32,3
 476               	.LM65:
 477 0456 8091 0000 		lds r24,bankStates+30
 478 045a 9091 0000 		lds r25,(bankStates+30)+1
 479 045e A091 0000 		lds r26,(bankStates+30)+2
 480 0462 B091 0000 		lds r27,(bankStates+30)+3
 481 0466 892F      		mov r24,r25
 482 0468 9A2F      		mov r25,r26
 483 046a AB2F      		mov r26,r27
 484 046c BB27      		clr r27
 485 046e 85B9      		out 37-32,r24
 486               	.LM66:
 487 0470 149A      		sbi 34-32,4
 488               	.LM67:
 489 0472 1498      		cbi 34-32,4
 490               	.LM68:
 491 0474 8091 0000 		lds r24,bankStates+30
 492 0478 9091 0000 		lds r25,(bankStates+30)+1
 493 047c A091 0000 		lds r26,(bankStates+30)+2
 494 0480 B091 0000 		lds r27,(bankStates+30)+3
 495 0484 CD01      		movw r24,r26
 496 0486 AA27      		clr r26
 497 0488 BB27      		clr r27
 498 048a 8770      		andi r24,lo8(7)
 499 048c 8868      		ori r24,lo8(-120)
 500 048e 88B9      		out 40-32,r24
 501               	.LM69:
 502 0490 14B8      		out 36-32,__zero_reg__
 503               	.LM70:
 504 0492 1298      		cbi 34-32,2
 505               	.LM71:
 506 0494 8091 0000 		lds r24,bankStates+5
 507 0498 8823      		tst r24
 508 049a 01F4      		brne .+2
 509 049c 00C0      		rjmp .L22
 510               	.LM72:
 511 049e 8091 0000 		lds r24,sliceRemaining
 512 04a2 9091 0000 		lds r25,(sliceRemaining)+1
 513 04a6 A091 0000 		lds r26,(sliceRemaining)+2
 514 04aa B091 0000 		lds r27,(sliceRemaining)+3
 515 04ae 0097      		sbiw r24,0
 516 04b0 A105      		cpc r26,__zero_reg__
 517 04b2 B105      		cpc r27,__zero_reg__
 518 04b4 01F0      		breq .L23
 519               	.LM73:
 520 04b6 8091 0000 		lds r24,bankStates+30
 521 04ba 9091 0000 		lds r25,(bankStates+30)+1
 522 04be A091 0000 		lds r26,(bankStates+30)+2
 523 04c2 B091 0000 		lds r27,(bankStates+30)+3
 524 04c6 0196      		adiw r24,1
 525 04c8 A11D      		adc r26,__zero_reg__
 526 04ca B11D      		adc r27,__zero_reg__
 527 04cc 8093 0000 		sts bankStates+30,r24
 528 04d0 9093 0000 		sts (bankStates+30)+1,r25
 529 04d4 A093 0000 		sts (bankStates+30)+2,r26
 530 04d8 B093 0000 		sts (bankStates+30)+3,r27
 531               	.LM74:
 532 04dc 8091 0000 		lds r24,sliceRemaining
 533 04e0 9091 0000 		lds r25,(sliceRemaining)+1
 534 04e4 A091 0000 		lds r26,(sliceRemaining)+2
 535 04e8 B091 0000 		lds r27,(sliceRemaining)+3
 536 04ec 0197      		sbiw r24,1
 537 04ee A109      		sbc r26,__zero_reg__
 538 04f0 B109      		sbc r27,__zero_reg__
 539 04f2 8093 0000 		sts sliceRemaining,r24
 540 04f6 9093 0000 		sts (sliceRemaining)+1,r25
 541 04fa A093 0000 		sts (sliceRemaining)+2,r26
 542 04fe B093 0000 		sts (sliceRemaining)+3,r27
 543 0502 00C0      		rjmp .L24
 544               	.L23:
 545               	.LM75:
 546 0504 8091 0000 		lds r24,sliceSize
 547 0508 9091 0000 		lds r25,(sliceSize)+1
 548 050c A091 0000 		lds r26,(sliceSize)+2
 549 0510 B091 0000 		lds r27,(sliceSize)+3
 550 0514 8093 0000 		sts sliceRemaining,r24
 551 0518 9093 0000 		sts (sliceRemaining)+1,r25
 552 051c A093 0000 		sts (sliceRemaining)+2,r26
 553 0520 B093 0000 		sts (sliceRemaining)+3,r27
 554               	.LM76:
 555 0524 8091 0000 		lds r24,granularPositionArrayPointer
 556 0528 8F5F      		subi r24,lo8(-(1))
 557 052a 8093 0000 		sts granularPositionArrayPointer,r24
 558               	.LM77:
 559 052e 9091 0000 		lds r25,granularPositionArrayPointer
 560 0532 8091 0000 		lds r24,bankStates+5
 561 0536 9817      		cp r25,r24
 562 0538 01F4      		brne .L25
 563               	.LM78:
 564 053a 1092 0000 		sts granularPositionArrayPointer,__zero_reg__
 565               	.L25:
 566               	.LM79:
 567 053e E091 0000 		lds r30,granularPositionArrayPointer
 568 0542 2091 0000 		lds r18,sliceSize
 569 0546 3091 0000 		lds r19,(sliceSize)+1
 570 054a 4091 0000 		lds r20,(sliceSize)+2
 571 054e 5091 0000 		lds r21,(sliceSize)+3
 572 0552 F0E0      		ldi r31,lo8(0)
 573 0554 E050      		subi r30,lo8(-(granularPositionArray))
 574 0556 F040      		sbci r31,hi8(-(granularPositionArray))
 575 0558 6081      		ld r22,Z
 576 055a 70E0      		ldi r23,lo8(0)
 577 055c 80E0      		ldi r24,lo8(0)
 578 055e 90E0      		ldi r25,hi8(0)
 579 0560 0E94 0000 		call __mulsi3
 580 0564 6093 0000 		sts bankStates+30,r22
 581 0568 7093 0000 		sts (bankStates+30)+1,r23
 582 056c 8093 0000 		sts (bankStates+30)+2,r24
 583 0570 9093 0000 		sts (bankStates+30)+3,r25
 584 0574 00C0      		rjmp .L24
 585               	.L22:
 586               	.LM80:
 587 0576 8091 0000 		lds r24,bankStates+4
 588 057a 8823      		tst r24
 589 057c 01F0      		breq .+2
 590 057e 00C0      		rjmp .L26
 591               	.LM81:
 592 0580 2091 0000 		lds r18,bankStates+30
 593 0584 3091 0000 		lds r19,(bankStates+30)+1
 594 0588 4091 0000 		lds r20,(bankStates+30)+2
 595 058c 5091 0000 		lds r21,(bankStates+30)+3
 596 0590 8091 0000 		lds r24,bankStates+23
 597 0594 9091 0000 		lds r25,(bankStates+23)+1
 598 0598 A091 0000 		lds r26,(bankStates+23)+2
 599 059c B091 0000 		lds r27,(bankStates+23)+3
 600 05a0 2817      		cp r18,r24
 601 05a2 3907      		cpc r19,r25
 602 05a4 4A07      		cpc r20,r26
 603 05a6 5B07      		cpc r21,r27
 604 05a8 01F4      		brne .L27
 605 05aa 8091 0000 		lds r24,bankStates+1
 606 05ae 8130      		cpi r24,lo8(1)
 607 05b0 01F4      		brne .+2
 608 05b2 00C0      		rjmp .L39
 609               	.L27:
 610               	.LM82:
 611 05b4 2091 0000 		lds r18,bankStates+30
 612 05b8 3091 0000 		lds r19,(bankStates+30)+1
 613 05bc 4091 0000 		lds r20,(bankStates+30)+2
 614 05c0 5091 0000 		lds r21,(bankStates+30)+3
 615 05c4 8091 0000 		lds r24,bankStates+23
 616 05c8 9091 0000 		lds r25,(bankStates+23)+1
 617 05cc A091 0000 		lds r26,(bankStates+23)+2
 618 05d0 B091 0000 		lds r27,(bankStates+23)+3
 619 05d4 2817      		cp r18,r24
 620 05d6 3907      		cpc r19,r25
 621 05d8 4A07      		cpc r20,r26
 622 05da 5B07      		cpc r21,r27
 623 05dc 01F4      		brne .L28
 624               	.LM83:
 625 05de 8091 0000 		lds r24,bankStates+19
 626 05e2 9091 0000 		lds r25,(bankStates+19)+1
 627 05e6 A091 0000 		lds r26,(bankStates+19)+2
 628 05ea B091 0000 		lds r27,(bankStates+19)+3
 629 05ee 00C0      		rjmp .L40
 630               	.L28:
 631               	.LM84:
 632 05f0 2091 0000 		lds r18,bankStates+30
 633 05f4 3091 0000 		lds r19,(bankStates+30)+1
 634 05f8 4091 0000 		lds r20,(bankStates+30)+2
 635 05fc 5091 0000 		lds r21,(bankStates+30)+3
 636 0600 8091 0000 		lds r24,bankStates+15
 637 0604 9091 0000 		lds r25,(bankStates+15)+1
 638 0608 A091 0000 		lds r26,(bankStates+15)+2
 639 060c B091 0000 		lds r27,(bankStates+15)+3
 640 0610 2817      		cp r18,r24
 641 0612 3907      		cpc r19,r25
 642 0614 4A07      		cpc r20,r26
 643 0616 5B07      		cpc r21,r27
 644 0618 01F4      		brne .L29
 645               	.LM85:
 646 061a 8091 0000 		lds r24,bankStates+11
 647 061e 9091 0000 		lds r25,(bankStates+11)+1
 648 0622 A091 0000 		lds r26,(bankStates+11)+2
 649 0626 B091 0000 		lds r27,(bankStates+11)+3
 650 062a 00C0      		rjmp .L40
 651               	.L29:
 652               	.LM86:
 653 062c 8091 0000 		lds r24,bankStates+30
 654 0630 9091 0000 		lds r25,(bankStates+30)+1
 655 0634 A091 0000 		lds r26,(bankStates+30)+2
 656 0638 B091 0000 		lds r27,(bankStates+30)+3
 657 063c 0197      		sbiw r24,1
 658 063e A109      		sbc r26,__zero_reg__
 659 0640 B109      		sbc r27,__zero_reg__
 660 0642 00C0      		rjmp .L40
 661               	.L26:
 662               	.LM87:
 663 0644 2091 0000 		lds r18,bankStates+30
 664 0648 3091 0000 		lds r19,(bankStates+30)+1
 665 064c 4091 0000 		lds r20,(bankStates+30)+2
 666 0650 5091 0000 		lds r21,(bankStates+30)+3
 667 0654 8091 0000 		lds r24,bankStates+19
 668 0658 9091 0000 		lds r25,(bankStates+19)+1
 669 065c A091 0000 		lds r26,(bankStates+19)+2
 670 0660 B091 0000 		lds r27,(bankStates+19)+3
 671 0664 2817      		cp r18,r24
 672 0666 3907      		cpc r19,r25
 673 0668 4A07      		cpc r20,r26
 674 066a 5B07      		cpc r21,r27
 675 066c 01F4      		brne .L30
 676 066e 8091 0000 		lds r24,bankStates+1
 677 0672 8130      		cpi r24,lo8(1)
 678 0674 01F4      		brne .L30
 679               	.L39:
 680               	.LM88:
 681 0676 1092 0000 		sts bankStates,__zero_reg__
 682               	.LM89:
 683 067a 1092 0000 		sts bankStates+8,__zero_reg__
 684 067e 00C0      		rjmp .L24
 685               	.L30:
 686               	.LM90:
 687 0680 2091 0000 		lds r18,bankStates+30
 688 0684 3091 0000 		lds r19,(bankStates+30)+1
 689 0688 4091 0000 		lds r20,(bankStates+30)+2
 690 068c 5091 0000 		lds r21,(bankStates+30)+3
 691 0690 8091 0000 		lds r24,bankStates+19
 692 0694 9091 0000 		lds r25,(bankStates+19)+1
 693 0698 A091 0000 		lds r26,(bankStates+19)+2
 694 069c B091 0000 		lds r27,(bankStates+19)+3
 695 06a0 2817      		cp r18,r24
 696 06a2 3907      		cpc r19,r25
 697 06a4 4A07      		cpc r20,r26
 698 06a6 5B07      		cpc r21,r27
 699 06a8 01F4      		brne .L31
 700               	.LM91:
 701 06aa 8091 0000 		lds r24,bankStates+23
 702 06ae 9091 0000 		lds r25,(bankStates+23)+1
 703 06b2 A091 0000 		lds r26,(bankStates+23)+2
 704 06b6 B091 0000 		lds r27,(bankStates+23)+3
 705 06ba 00C0      		rjmp .L40
 706               	.L31:
 707               	.LM92:
 708 06bc 2091 0000 		lds r18,bankStates+30
 709 06c0 3091 0000 		lds r19,(bankStates+30)+1
 710 06c4 4091 0000 		lds r20,(bankStates+30)+2
 711 06c8 5091 0000 		lds r21,(bankStates+30)+3
 712 06cc 8091 0000 		lds r24,bankStates+11
 713 06d0 9091 0000 		lds r25,(bankStates+11)+1
 714 06d4 A091 0000 		lds r26,(bankStates+11)+2
 715 06d8 B091 0000 		lds r27,(bankStates+11)+3
 716 06dc 2817      		cp r18,r24
 717 06de 3907      		cpc r19,r25
 718 06e0 4A07      		cpc r20,r26
 719 06e2 5B07      		cpc r21,r27
 720 06e4 01F4      		brne .L32
 721               	.LM93:
 722 06e6 8091 0000 		lds r24,bankStates+15
 723 06ea 9091 0000 		lds r25,(bankStates+15)+1
 724 06ee A091 0000 		lds r26,(bankStates+15)+2
 725 06f2 B091 0000 		lds r27,(bankStates+15)+3
 726 06f6 00C0      		rjmp .L40
 727               	.L32:
 728               	.LM94:
 729 06f8 8091 0000 		lds r24,bankStates+30
 730 06fc 9091 0000 		lds r25,(bankStates+30)+1
 731 0700 A091 0000 		lds r26,(bankStates+30)+2
 732 0704 B091 0000 		lds r27,(bankStates+30)+3
 733 0708 0196      		adiw r24,1
 734 070a A11D      		adc r26,__zero_reg__
 735 070c B11D      		adc r27,__zero_reg__
 736               	.L40:
 737 070e 8093 0000 		sts bankStates+30,r24
 738 0712 9093 0000 		sts (bankStates+30)+1,r25
 739 0716 A093 0000 		sts (bankStates+30)+2,r26
 740 071a B093 0000 		sts (bankStates+30)+3,r27
 741               	.L24:
 742               	.LM95:
 743 071e 43B1      		in r20,35-32
 744               	.LVL8:
 745               	.LM96:
 746 0720 129A      		sbi 34-32,2
 747               	.LM97:
 748 0722 8FEF      		ldi r24,lo8(-1)
 749 0724 84B9      		out 36-32,r24
 750               	.LM98:
 751 0726 8091 0000 		lds r24,bankStates+7
 752 072a 8823      		tst r24
 753 072c 01F0      		breq .L33
 754               	.LM99:
 755 072e 4058      		subi r20,lo8(-(-128))
 756               	.LM100:
 757 0730 2091 0000 		lds r18,bankStates+7
 758 0734 8FEF      		ldi r24,lo8(255)
 759 0736 90E0      		ldi r25,hi8(255)
 760 0738 00C0      		rjmp 2f
 761 073a 880F      	1:	lsl r24
 762 073c 991F      		rol r25
 763 073e 2A95      	2:	dec r18
 764 0740 02F4      		brpl 1b
 765 0742 4823      		and r20,r24
 766               	.LM101:
 767 0744 4058      		subi r20,lo8(-(-128))
 768               	.L33:
 769               	.LM102:
 770 0746 242F      		mov r18,r20
 771 0748 3327      		clr r19
 772 074a 27FD      		sbrc r18,7
 773 074c 3095      		com r19
 774               	.LVL9:
 775 074e 8091 0000 		lds r24,adcByte
 776 0752 9927      		clr r25
 777 0754 87FD      		sbrc r24,7
 778 0756 9095      		com r25
 779 0758 280F      		add r18,r24
 780 075a 391F      		adc r19,r25
 781 075c 8FEF      		ldi r24,hi8(-128)
 782 075e 2038      		cpi r18,lo8(-128)
 783 0760 3807      		cpc r19,r24
 784 0762 04F4      		brge .L34
 785 0764 20E8      		ldi r18,lo8(-128)
 786 0766 3FEF      		ldi r19,hi8(-128)
 787               	.L34:
 788               	.LM103:
 789 0768 C901      		movw r24,r18
 790 076a 2038      		cpi r18,128
 791 076c 3105      		cpc r19,__zero_reg__
 792 076e 04F0      		brlt .L35
 793 0770 8FE7      		ldi r24,lo8(127)
 794 0772 90E0      		ldi r25,hi8(127)
 795               	.LVL10:
 796               	.L35:
 797 0774 85B9      		out 37-32,r24
 798               	.LM104:
 799 0776 1198      		cbi 34-32,1
 800               	.LM105:
 801 0778 119A      		sbi 34-32,1
 802               	.L9:
 803               	.LM106:
 804 077a 842F      		mov r24,r20
 805               	.LVL11:
 806               	/* epilogue start */
 807 077c 0895      		ret
 808               	.LFE3:
 811               	UpdateAudioChannel1:
 812               	.LFB4:
 813               	.LM107:
 814               	/* prologue: function */
 815               	/* frame size = 0 */
 816               	.LM108:
 817 077e 8091 0000 		lds r24,bankStates+34
 818 0782 8330      		cpi r24,lo8(3)
 819 0784 01F0      		breq .L50
 820 0786 8430      		cpi r24,lo8(4)
 821 0788 00F4      		brsh .L53
 822 078a 8130      		cpi r24,lo8(1)
 823 078c 01F0      		breq .L48
 824 078e 8230      		cpi r24,lo8(2)
 825 0790 01F0      		breq .+2
 826 0792 00C0      		rjmp .L86
 827 0794 00C0      		rjmp .L90
 828               	.L53:
 829 0796 8430      		cpi r24,lo8(4)
 830 0798 01F4      		brne .+2
 831 079a 00C0      		rjmp .L51
 832 079c 8530      		cpi r24,lo8(5)
 833 079e 01F0      		breq .+2
 834 07a0 00C0      		rjmp .L86
 835 07a2 00C0      		rjmp .L52
 836               	.L48:
 837               	.LM109:
 838 07a4 4091 0000 		lds r20,sawtooth.1804
 839               	.LVL12:
 840 07a8 4F5F      		subi r20,lo8(-(1))
 841 07aa 4093 0000 		sts sawtooth.1804,r20
 842 07ae 4150      		subi r20,lo8(-(-1))
 843 07b0 00C0      		rjmp .L54
 844               	.LVL13:
 845               	.L90:
 846               	.LM110:
 847 07b2 4091 0000 		lds r20,adcByte
 848               	.LVL14:
 849 07b6 00C0      		rjmp .L89
 850               	.LVL15:
 851               	.L50:
 852               	.LM111:
 853 07b8 8FEF      		ldi r24,lo8(-1)
 854 07ba 84B9      		out 36-32,r24
 855               	.LM112:
 856 07bc 8091 0000 		lds r24,bankStates+64
 857 07c0 9091 0000 		lds r25,(bankStates+64)+1
 858 07c4 A091 0000 		lds r26,(bankStates+64)+2
 859 07c8 B091 0000 		lds r27,(bankStates+64)+3
 860 07cc 85B9      		out 37-32,r24
 861               	.LM113:
 862 07ce 139A      		sbi 34-32,3
 863               	.LM114:
 864 07d0 1398      		cbi 34-32,3
 865               	.LM115:
 866 07d2 8091 0000 		lds r24,bankStates+64
 867 07d6 9091 0000 		lds r25,(bankStates+64)+1
 868 07da A091 0000 		lds r26,(bankStates+64)+2
 869 07de B091 0000 		lds r27,(bankStates+64)+3
 870 07e2 892F      		mov r24,r25
 871 07e4 9A2F      		mov r25,r26
 872 07e6 AB2F      		mov r26,r27
 873 07e8 BB27      		clr r27
 874 07ea 85B9      		out 37-32,r24
 875               	.LM116:
 876 07ec 149A      		sbi 34-32,4
 877               	.LM117:
 878 07ee 1498      		cbi 34-32,4
 879               	.LM118:
 880 07f0 8091 0000 		lds r24,bankStates+64
 881 07f4 9091 0000 		lds r25,(bankStates+64)+1
 882 07f8 A091 0000 		lds r26,(bankStates+64)+2
 883 07fc B091 0000 		lds r27,(bankStates+64)+3
 884 0800 CD01      		movw r24,r26
 885 0802 AA27      		clr r26
 886 0804 BB27      		clr r27
 887 0806 8770      		andi r24,lo8(7)
 888 0808 8868      		ori r24,lo8(-120)
 889 080a 88B9      		out 40-32,r24
 890               	.LM119:
 891 080c 8091 0000 		lds r24,adcByte
 892 0810 85B9      		out 37-32,r24
 893               	.LM120:
 894 0812 8091 0000 		lds r24,bankStates+64
 895 0816 9091 0000 		lds r25,(bankStates+64)+1
 896 081a A091 0000 		lds r26,(bankStates+64)+2
 897 081e B091 0000 		lds r27,(bankStates+64)+3
 898 0822 0197      		sbiw r24,1
 899 0824 A109      		sbc r26,__zero_reg__
 900 0826 B109      		sbc r27,__zero_reg__
 901 0828 8093 0000 		sts bankStates+64,r24
 902 082c 9093 0000 		sts (bankStates+64)+1,r25
 903 0830 A093 0000 		sts (bankStates+64)+2,r26
 904 0834 B093 0000 		sts (bankStates+64)+3,r27
 905               	.LM121:
 906 0838 8091 0000 		lds r24,bankStates+64
 907 083c 9091 0000 		lds r25,(bankStates+64)+1
 908 0840 A091 0000 		lds r26,(bankStates+64)+2
 909 0844 B091 0000 		lds r27,(bankStates+64)+3
 910 0848 8093 0000 		sts bankStates+45,r24
 911 084c 9093 0000 		sts (bankStates+45)+1,r25
 912 0850 A093 0000 		sts (bankStates+45)+2,r26
 913 0854 B093 0000 		sts (bankStates+45)+3,r27
 914               	.LM122:
 915 0858 8091 0000 		lds r24,bankStates+64
 916 085c 9091 0000 		lds r25,(bankStates+64)+1
 917 0860 A091 0000 		lds r26,(bankStates+64)+2
 918 0864 B091 0000 		lds r27,(bankStates+64)+3
 919 0868 8093 0000 		sts bankStates+53,r24
 920 086c 9093 0000 		sts (bankStates+53)+1,r25
 921 0870 A093 0000 		sts (bankStates+53)+2,r26
 922 0874 B093 0000 		sts (bankStates+53)+3,r27
 923               	.LM123:
 924 0878 2091 0000 		lds r18,bankStates+11
 925 087c 3091 0000 		lds r19,(bankStates+11)+1
 926 0880 4091 0000 		lds r20,(bankStates+11)+2
 927 0884 5091 0000 		lds r21,(bankStates+11)+3
 928 0888 8091 0000 		lds r24,bankStates+45
 929 088c 9091 0000 		lds r25,(bankStates+45)+1
 930 0890 A091 0000 		lds r26,(bankStates+45)+2
 931 0894 B091 0000 		lds r27,(bankStates+45)+3
 932 0898 2817      		cp r18,r24
 933 089a 3907      		cpc r19,r25
 934 089c 4A07      		cpc r20,r26
 935 089e 5B07      		cpc r21,r27
 936 08a0 00F0      		brlo .L55
 937               	.LM124:
 938 08a2 1092 0000 		sts bankStates+34,__zero_reg__
 939               	.LM125:
 940 08a6 81E0      		ldi r24,lo8(1)
 941 08a8 8093 0000 		sts outOfRam,r24
 942               	.L55:
 943               	.LM126:
 944 08ac 1198      		cbi 34-32,1
 945               	.LM127:
 946 08ae 119A      		sbi 34-32,1
 947               	.L86:
 948 08b0 40E0      		ldi r20,lo8(0)
 949               	.LVL16:
 950 08b2 00C0      		rjmp .L54
 951               	.LVL17:
 952               	.L51:
 953               	.LM128:
 954 08b4 8091 0000 		lds r24,bankStates+64
 955 08b8 9091 0000 		lds r25,(bankStates+64)+1
 956 08bc A091 0000 		lds r26,(bankStates+64)+2
 957 08c0 B091 0000 		lds r27,(bankStates+64)+3
 958 08c4 85B9      		out 37-32,r24
 959               	.LM129:
 960 08c6 139A      		sbi 34-32,3
 961               	.LM130:
 962 08c8 1398      		cbi 34-32,3
 963               	.LM131:
 964 08ca 8091 0000 		lds r24,bankStates+64
 965 08ce 9091 0000 		lds r25,(bankStates+64)+1
 966 08d2 A091 0000 		lds r26,(bankStates+64)+2
 967 08d6 B091 0000 		lds r27,(bankStates+64)+3
 968 08da 892F      		mov r24,r25
 969 08dc 9A2F      		mov r25,r26
 970 08de AB2F      		mov r26,r27
 971 08e0 BB27      		clr r27
 972 08e2 85B9      		out 37-32,r24
 973               	.LM132:
 974 08e4 149A      		sbi 34-32,4
 975               	.LM133:
 976 08e6 1498      		cbi 34-32,4
 977               	.LM134:
 978 08e8 8091 0000 		lds r24,bankStates+64
 979 08ec 9091 0000 		lds r25,(bankStates+64)+1
 980 08f0 A091 0000 		lds r26,(bankStates+64)+2
 981 08f4 B091 0000 		lds r27,(bankStates+64)+3
 982 08f8 CD01      		movw r24,r26
 983 08fa AA27      		clr r26
 984 08fc BB27      		clr r27
 985 08fe 8770      		andi r24,lo8(7)
 986 0900 8868      		ori r24,lo8(-120)
 987 0902 88B9      		out 40-32,r24
 988               	.LM135:
 989 0904 14B8      		out 36-32,__zero_reg__
 990               	.LM136:
 991 0906 1298      		cbi 34-32,2
 992               	.LM137:
 993 0908 8091 0000 		lds r24,bankStates+39
 994 090c 8823      		tst r24
 995 090e 01F4      		brne .+2
 996 0910 00C0      		rjmp .L56
 997               	.LM138:
 998 0912 8091 0000 		lds r24,sliceRemaining+4
 999 0916 9091 0000 		lds r25,(sliceRemaining+4)+1
 1000 091a A091 0000 		lds r26,(sliceRemaining+4)+2
 1001 091e B091 0000 		lds r27,(sliceRemaining+4)+3
 1002 0922 0097      		sbiw r24,0
 1003 0924 A105      		cpc r26,__zero_reg__
 1004 0926 B105      		cpc r27,__zero_reg__
 1005 0928 01F0      		breq .L57
 1006               	.LM139:
 1007 092a 8091 0000 		lds r24,bankStates+64
 1008 092e 9091 0000 		lds r25,(bankStates+64)+1
 1009 0932 A091 0000 		lds r26,(bankStates+64)+2
 1010 0936 B091 0000 		lds r27,(bankStates+64)+3
 1011 093a 0197      		sbiw r24,1
 1012 093c A109      		sbc r26,__zero_reg__
 1013 093e B109      		sbc r27,__zero_reg__
 1014 0940 8093 0000 		sts bankStates+64,r24
 1015 0944 9093 0000 		sts (bankStates+64)+1,r25
 1016 0948 A093 0000 		sts (bankStates+64)+2,r26
 1017 094c B093 0000 		sts (bankStates+64)+3,r27
 1018               	.LM140:
 1019 0950 8091 0000 		lds r24,sliceRemaining+4
 1020 0954 9091 0000 		lds r25,(sliceRemaining+4)+1
 1021 0958 A091 0000 		lds r26,(sliceRemaining+4)+2
 1022 095c B091 0000 		lds r27,(sliceRemaining+4)+3
 1023 0960 0197      		sbiw r24,1
 1024 0962 A109      		sbc r26,__zero_reg__
 1025 0964 B109      		sbc r27,__zero_reg__
 1026 0966 8093 0000 		sts sliceRemaining+4,r24
 1027 096a 9093 0000 		sts (sliceRemaining+4)+1,r25
 1028 096e A093 0000 		sts (sliceRemaining+4)+2,r26
 1029 0972 B093 0000 		sts (sliceRemaining+4)+3,r27
 1030 0976 00C0      		rjmp .L58
 1031               	.L57:
 1032               	.LM141:
 1033 0978 8091 0000 		lds r24,sliceSize+4
 1034 097c 9091 0000 		lds r25,(sliceSize+4)+1
 1035 0980 A091 0000 		lds r26,(sliceSize+4)+2
 1036 0984 B091 0000 		lds r27,(sliceSize+4)+3
 1037 0988 8093 0000 		sts sliceRemaining+4,r24
 1038 098c 9093 0000 		sts (sliceRemaining+4)+1,r25
 1039 0990 A093 0000 		sts (sliceRemaining+4)+2,r26
 1040 0994 B093 0000 		sts (sliceRemaining+4)+3,r27
 1041               	.LM142:
 1042 0998 8091 0000 		lds r24,granularPositionArrayPointer+1
 1043 099c 8F5F      		subi r24,lo8(-(1))
 1044 099e 8093 0000 		sts granularPositionArrayPointer+1,r24
 1045               	.LM143:
 1046 09a2 9091 0000 		lds r25,granularPositionArrayPointer+1
 1047 09a6 8091 0000 		lds r24,bankStates+39
 1048 09aa 9817      		cp r25,r24
 1049 09ac 01F4      		brne .L59
 1050               	.LM144:
 1051 09ae 1092 0000 		sts granularPositionArrayPointer+1,__zero_reg__
 1052               	.L59:
 1053               	.LM145:
 1054 09b2 E091 0000 		lds r30,granularPositionArrayPointer+1
 1055 09b6 2091 0000 		lds r18,sliceSize+4
 1056 09ba 3091 0000 		lds r19,(sliceSize+4)+1
 1057 09be 4091 0000 		lds r20,(sliceSize+4)+2
 1058 09c2 5091 0000 		lds r21,(sliceSize+4)+3
 1059 09c6 F0E0      		ldi r31,lo8(0)
 1060 09c8 E050      		subi r30,lo8(-(granularPositionArray+128))
 1061 09ca F040      		sbci r31,hi8(-(granularPositionArray+128))
 1062 09cc 6081      		ld r22,Z
 1063 09ce 70E0      		ldi r23,lo8(0)
 1064 09d0 80E0      		ldi r24,lo8(0)
 1065 09d2 90E0      		ldi r25,hi8(0)
 1066 09d4 0E94 0000 		call __mulsi3
 1067 09d8 2FEF      		ldi r18,lo8(524287)
 1068 09da 3FEF      		ldi r19,hi8(524287)
 1069 09dc 47E0      		ldi r20,hlo8(524287)
 1070 09de 50E0      		ldi r21,hhi8(524287)
 1071 09e0 261B      		sub r18,r22
 1072 09e2 370B      		sbc r19,r23
 1073 09e4 480B      		sbc r20,r24
 1074 09e6 590B      		sbc r21,r25
 1075 09e8 2093 0000 		sts bankStates+64,r18
 1076 09ec 3093 0000 		sts (bankStates+64)+1,r19
 1077 09f0 4093 0000 		sts (bankStates+64)+2,r20
 1078 09f4 5093 0000 		sts (bankStates+64)+3,r21
 1079 09f8 00C0      		rjmp .L58
 1080               	.L56:
 1081               	.LM146:
 1082 09fa 8091 0000 		lds r24,bankStates+38
 1083 09fe 8823      		tst r24
 1084 0a00 01F0      		breq .+2
 1085 0a02 00C0      		rjmp .L60
 1086               	.LM147:
 1087 0a04 2091 0000 		lds r18,bankStates+64
 1088 0a08 3091 0000 		lds r19,(bankStates+64)+1
 1089 0a0c 4091 0000 		lds r20,(bankStates+64)+2
 1090 0a10 5091 0000 		lds r21,(bankStates+64)+3
 1091 0a14 8091 0000 		lds r24,bankStates+57
 1092 0a18 9091 0000 		lds r25,(bankStates+57)+1
 1093 0a1c A091 0000 		lds r26,(bankStates+57)+2
 1094 0a20 B091 0000 		lds r27,(bankStates+57)+3
 1095 0a24 2817      		cp r18,r24
 1096 0a26 3907      		cpc r19,r25
 1097 0a28 4A07      		cpc r20,r26
 1098 0a2a 5B07      		cpc r21,r27
 1099 0a2c 01F4      		brne .L61
 1100 0a2e 8091 0000 		lds r24,bankStates+35
 1101 0a32 8130      		cpi r24,lo8(1)
 1102 0a34 01F4      		brne .+2
 1103 0a36 00C0      		rjmp .L82
 1104               	.L61:
 1105               	.LM148:
 1106 0a38 2091 0000 		lds r18,bankStates+64
 1107 0a3c 3091 0000 		lds r19,(bankStates+64)+1
 1108 0a40 4091 0000 		lds r20,(bankStates+64)+2
 1109 0a44 5091 0000 		lds r21,(bankStates+64)+3
 1110 0a48 8091 0000 		lds r24,bankStates+57
 1111 0a4c 9091 0000 		lds r25,(bankStates+57)+1
 1112 0a50 A091 0000 		lds r26,(bankStates+57)+2
 1113 0a54 B091 0000 		lds r27,(bankStates+57)+3
 1114 0a58 2817      		cp r18,r24
 1115 0a5a 3907      		cpc r19,r25
 1116 0a5c 4A07      		cpc r20,r26
 1117 0a5e 5B07      		cpc r21,r27
 1118 0a60 01F4      		brne .L62
 1119               	.LM149:
 1120 0a62 8091 0000 		lds r24,bankStates+53
 1121 0a66 9091 0000 		lds r25,(bankStates+53)+1
 1122 0a6a A091 0000 		lds r26,(bankStates+53)+2
 1123 0a6e B091 0000 		lds r27,(bankStates+53)+3
 1124 0a72 00C0      		rjmp .L83
 1125               	.L62:
 1126               	.LM150:
 1127 0a74 2091 0000 		lds r18,bankStates+64
 1128 0a78 3091 0000 		lds r19,(bankStates+64)+1
 1129 0a7c 4091 0000 		lds r20,(bankStates+64)+2
 1130 0a80 5091 0000 		lds r21,(bankStates+64)+3
 1131 0a84 8091 0000 		lds r24,bankStates+49
 1132 0a88 9091 0000 		lds r25,(bankStates+49)+1
 1133 0a8c A091 0000 		lds r26,(bankStates+49)+2
 1134 0a90 B091 0000 		lds r27,(bankStates+49)+3
 1135 0a94 2817      		cp r18,r24
 1136 0a96 3907      		cpc r19,r25
 1137 0a98 4A07      		cpc r20,r26
 1138 0a9a 5B07      		cpc r21,r27
 1139 0a9c 01F4      		brne .L63
 1140               	.LM151:
 1141 0a9e 8091 0000 		lds r24,bankStates+45
 1142 0aa2 9091 0000 		lds r25,(bankStates+45)+1
 1143 0aa6 A091 0000 		lds r26,(bankStates+45)+2
 1144 0aaa B091 0000 		lds r27,(bankStates+45)+3
 1145 0aae 00C0      		rjmp .L83
 1146               	.L63:
 1147               	.LM152:
 1148 0ab0 8091 0000 		lds r24,bankStates+64
 1149 0ab4 9091 0000 		lds r25,(bankStates+64)+1
 1150 0ab8 A091 0000 		lds r26,(bankStates+64)+2
 1151 0abc B091 0000 		lds r27,(bankStates+64)+3
 1152 0ac0 0196      		adiw r24,1
 1153 0ac2 A11D      		adc r26,__zero_reg__
 1154 0ac4 B11D      		adc r27,__zero_reg__
 1155 0ac6 00C0      		rjmp .L83
 1156               	.L60:
 1157               	.LM153:
 1158 0ac8 2091 0000 		lds r18,bankStates+64
 1159 0acc 3091 0000 		lds r19,(bankStates+64)+1
 1160 0ad0 4091 0000 		lds r20,(bankStates+64)+2
 1161 0ad4 5091 0000 		lds r21,(bankStates+64)+3
 1162 0ad8 8091 0000 		lds r24,bankStates+53
 1163 0adc 9091 0000 		lds r25,(bankStates+53)+1
 1164 0ae0 A091 0000 		lds r26,(bankStates+53)+2
 1165 0ae4 B091 0000 		lds r27,(bankStates+53)+3
 1166 0ae8 2817      		cp r18,r24
 1167 0aea 3907      		cpc r19,r25
 1168 0aec 4A07      		cpc r20,r26
 1169 0aee 5B07      		cpc r21,r27
 1170 0af0 01F4      		brne .L64
 1171 0af2 8091 0000 		lds r24,bankStates+35
 1172 0af6 8130      		cpi r24,lo8(1)
 1173 0af8 01F4      		brne .L64
 1174               	.L82:
 1175               	.LM154:
 1176 0afa 1092 0000 		sts bankStates+34,__zero_reg__
 1177               	.LM155:
 1178 0afe 1092 0000 		sts bankStates+42,__zero_reg__
 1179 0b02 00C0      		rjmp .L58
 1180               	.L64:
 1181               	.LM156:
 1182 0b04 2091 0000 		lds r18,bankStates+64
 1183 0b08 3091 0000 		lds r19,(bankStates+64)+1
 1184 0b0c 4091 0000 		lds r20,(bankStates+64)+2
 1185 0b10 5091 0000 		lds r21,(bankStates+64)+3
 1186 0b14 8091 0000 		lds r24,bankStates+53
 1187 0b18 9091 0000 		lds r25,(bankStates+53)+1
 1188 0b1c A091 0000 		lds r26,(bankStates+53)+2
 1189 0b20 B091 0000 		lds r27,(bankStates+53)+3
 1190 0b24 2817      		cp r18,r24
 1191 0b26 3907      		cpc r19,r25
 1192 0b28 4A07      		cpc r20,r26
 1193 0b2a 5B07      		cpc r21,r27
 1194 0b2c 01F4      		brne .L65
 1195               	.LM157:
 1196 0b2e 8091 0000 		lds r24,bankStates+57
 1197 0b32 9091 0000 		lds r25,(bankStates+57)+1
 1198 0b36 A091 0000 		lds r26,(bankStates+57)+2
 1199 0b3a B091 0000 		lds r27,(bankStates+57)+3
 1200 0b3e 00C0      		rjmp .L83
 1201               	.L65:
 1202               	.LM158:
 1203 0b40 2091 0000 		lds r18,bankStates+64
 1204 0b44 3091 0000 		lds r19,(bankStates+64)+1
 1205 0b48 4091 0000 		lds r20,(bankStates+64)+2
 1206 0b4c 5091 0000 		lds r21,(bankStates+64)+3
 1207 0b50 8091 0000 		lds r24,bankStates+45
 1208 0b54 9091 0000 		lds r25,(bankStates+45)+1
 1209 0b58 A091 0000 		lds r26,(bankStates+45)+2
 1210 0b5c B091 0000 		lds r27,(bankStates+45)+3
 1211 0b60 2817      		cp r18,r24
 1212 0b62 3907      		cpc r19,r25
 1213 0b64 4A07      		cpc r20,r26
 1214 0b66 5B07      		cpc r21,r27
 1215 0b68 01F4      		brne .L66
 1216               	.LM159:
 1217 0b6a 8091 0000 		lds r24,bankStates+49
 1218 0b6e 9091 0000 		lds r25,(bankStates+49)+1
 1219 0b72 A091 0000 		lds r26,(bankStates+49)+2
 1220 0b76 B091 0000 		lds r27,(bankStates+49)+3
 1221 0b7a 00C0      		rjmp .L83
 1222               	.L66:
 1223               	.LM160:
 1224 0b7c 8091 0000 		lds r24,bankStates+64
 1225 0b80 9091 0000 		lds r25,(bankStates+64)+1
 1226 0b84 A091 0000 		lds r26,(bankStates+64)+2
 1227 0b88 B091 0000 		lds r27,(bankStates+64)+3
 1228 0b8c 0197      		sbiw r24,1
 1229 0b8e A109      		sbc r26,__zero_reg__
 1230 0b90 B109      		sbc r27,__zero_reg__
 1231               	.L83:
 1232 0b92 8093 0000 		sts bankStates+64,r24
 1233 0b96 9093 0000 		sts (bankStates+64)+1,r25
 1234 0b9a A093 0000 		sts (bankStates+64)+2,r26
 1235 0b9e B093 0000 		sts (bankStates+64)+3,r27
 1236               	.L58:
 1237               	.LM161:
 1238 0ba2 43B1      		in r20,35-32
 1239               	.LVL18:
 1240               	.LM162:
 1241 0ba4 129A      		sbi 34-32,2
 1242               	.LM163:
 1243 0ba6 8FEF      		ldi r24,lo8(-1)
 1244 0ba8 84B9      		out 36-32,r24
 1245               	.L89:
 1246               	.LM164:
 1247 0baa 8091 0000 		lds r24,bankStates+41
 1248 0bae 8823      		tst r24
 1249 0bb0 01F4      		brne .+2
 1250 0bb2 00C0      		rjmp .L54
 1251               	.LM165:
 1252 0bb4 4058      		subi r20,lo8(-(-128))
 1253               	.LM166:
 1254 0bb6 2091 0000 		lds r18,bankStates+41
 1255 0bba 8FEF      		ldi r24,lo8(255)
 1256 0bbc 90E0      		ldi r25,hi8(255)
 1257 0bbe 00C0      		rjmp 2f
 1258 0bc0 880F      	1:	lsl r24
 1259 0bc2 991F      		rol r25
 1260 0bc4 2A95      	2:	dec r18
 1261 0bc6 02F4      		brpl 1b
 1262 0bc8 4823      		and r20,r24
 1263               	.LM167:
 1264 0bca 4058      		subi r20,lo8(-(-128))
 1265 0bcc 00C0      		rjmp .L54
 1266               	.LVL19:
 1267               	.L52:
 1268               	.LM168:
 1269 0bce 8091 0000 		lds r24,bankStates+64
 1270 0bd2 9091 0000 		lds r25,(bankStates+64)+1
 1271 0bd6 A091 0000 		lds r26,(bankStates+64)+2
 1272 0bda B091 0000 		lds r27,(bankStates+64)+3
 1273 0bde 85B9      		out 37-32,r24
 1274               	.LM169:
 1275 0be0 139A      		sbi 34-32,3
 1276               	.LM170:
 1277 0be2 1398      		cbi 34-32,3
 1278               	.LM171:
 1279 0be4 8091 0000 		lds r24,bankStates+64
 1280 0be8 9091 0000 		lds r25,(bankStates+64)+1
 1281 0bec A091 0000 		lds r26,(bankStates+64)+2
 1282 0bf0 B091 0000 		lds r27,(bankStates+64)+3
 1283 0bf4 892F      		mov r24,r25
 1284 0bf6 9A2F      		mov r25,r26
 1285 0bf8 AB2F      		mov r26,r27
 1286 0bfa BB27      		clr r27
 1287 0bfc 85B9      		out 37-32,r24
 1288               	.LM172:
 1289 0bfe 149A      		sbi 34-32,4
 1290               	.LM173:
 1291 0c00 1498      		cbi 34-32,4
 1292               	.LM174:
 1293 0c02 8091 0000 		lds r24,bankStates+64
 1294 0c06 9091 0000 		lds r25,(bankStates+64)+1
 1295 0c0a A091 0000 		lds r26,(bankStates+64)+2
 1296 0c0e B091 0000 		lds r27,(bankStates+64)+3
 1297 0c12 CD01      		movw r24,r26
 1298 0c14 AA27      		clr r26
 1299 0c16 BB27      		clr r27
 1300 0c18 8770      		andi r24,lo8(7)
 1301 0c1a 8868      		ori r24,lo8(-120)
 1302 0c1c 88B9      		out 40-32,r24
 1303               	.LM175:
 1304 0c1e 14B8      		out 36-32,__zero_reg__
 1305               	.LM176:
 1306 0c20 1298      		cbi 34-32,2
 1307               	.LM177:
 1308 0c22 8091 0000 		lds r24,bankStates+39
 1309 0c26 8823      		tst r24
 1310 0c28 01F4      		brne .+2
 1311 0c2a 00C0      		rjmp .L67
 1312               	.LM178:
 1313 0c2c 8091 0000 		lds r24,sliceRemaining+4
 1314 0c30 9091 0000 		lds r25,(sliceRemaining+4)+1
 1315 0c34 A091 0000 		lds r26,(sliceRemaining+4)+2
 1316 0c38 B091 0000 		lds r27,(sliceRemaining+4)+3
 1317 0c3c 0097      		sbiw r24,0
 1318 0c3e A105      		cpc r26,__zero_reg__
 1319 0c40 B105      		cpc r27,__zero_reg__
 1320 0c42 01F0      		breq .L68
 1321               	.LM179:
 1322 0c44 8091 0000 		lds r24,bankStates+64
 1323 0c48 9091 0000 		lds r25,(bankStates+64)+1
 1324 0c4c A091 0000 		lds r26,(bankStates+64)+2
 1325 0c50 B091 0000 		lds r27,(bankStates+64)+3
 1326 0c54 0197      		sbiw r24,1
 1327 0c56 A109      		sbc r26,__zero_reg__
 1328 0c58 B109      		sbc r27,__zero_reg__
 1329 0c5a 8093 0000 		sts bankStates+64,r24
 1330 0c5e 9093 0000 		sts (bankStates+64)+1,r25
 1331 0c62 A093 0000 		sts (bankStates+64)+2,r26
 1332 0c66 B093 0000 		sts (bankStates+64)+3,r27
 1333               	.LM180:
 1334 0c6a 8091 0000 		lds r24,sliceRemaining+4
 1335 0c6e 9091 0000 		lds r25,(sliceRemaining+4)+1
 1336 0c72 A091 0000 		lds r26,(sliceRemaining+4)+2
 1337 0c76 B091 0000 		lds r27,(sliceRemaining+4)+3
 1338 0c7a 0197      		sbiw r24,1
 1339 0c7c A109      		sbc r26,__zero_reg__
 1340 0c7e B109      		sbc r27,__zero_reg__
 1341 0c80 8093 0000 		sts sliceRemaining+4,r24
 1342 0c84 9093 0000 		sts (sliceRemaining+4)+1,r25
 1343 0c88 A093 0000 		sts (sliceRemaining+4)+2,r26
 1344 0c8c B093 0000 		sts (sliceRemaining+4)+3,r27
 1345 0c90 00C0      		rjmp .L69
 1346               	.L68:
 1347               	.LM181:
 1348 0c92 8091 0000 		lds r24,sliceSize+4
 1349 0c96 9091 0000 		lds r25,(sliceSize+4)+1
 1350 0c9a A091 0000 		lds r26,(sliceSize+4)+2
 1351 0c9e B091 0000 		lds r27,(sliceSize+4)+3
 1352 0ca2 8093 0000 		sts sliceRemaining+4,r24
 1353 0ca6 9093 0000 		sts (sliceRemaining+4)+1,r25
 1354 0caa A093 0000 		sts (sliceRemaining+4)+2,r26
 1355 0cae B093 0000 		sts (sliceRemaining+4)+3,r27
 1356               	.LM182:
 1357 0cb2 8091 0000 		lds r24,granularPositionArrayPointer+1
 1358 0cb6 8F5F      		subi r24,lo8(-(1))
 1359 0cb8 8093 0000 		sts granularPositionArrayPointer+1,r24
 1360               	.LM183:
 1361 0cbc 9091 0000 		lds r25,granularPositionArrayPointer+1
 1362 0cc0 8091 0000 		lds r24,bankStates+39
 1363 0cc4 9817      		cp r25,r24
 1364 0cc6 01F4      		brne .L70
 1365               	.LM184:
 1366 0cc8 1092 0000 		sts granularPositionArrayPointer+1,__zero_reg__
 1367               	.L70:
 1368               	.LM185:
 1369 0ccc E091 0000 		lds r30,granularPositionArrayPointer+1
 1370 0cd0 2091 0000 		lds r18,sliceSize+4
 1371 0cd4 3091 0000 		lds r19,(sliceSize+4)+1
 1372 0cd8 4091 0000 		lds r20,(sliceSize+4)+2
 1373 0cdc 5091 0000 		lds r21,(sliceSize+4)+3
 1374 0ce0 F0E0      		ldi r31,lo8(0)
 1375 0ce2 E050      		subi r30,lo8(-(granularPositionArray+128))
 1376 0ce4 F040      		sbci r31,hi8(-(granularPositionArray+128))
 1377 0ce6 6081      		ld r22,Z
 1378 0ce8 70E0      		ldi r23,lo8(0)
 1379 0cea 80E0      		ldi r24,lo8(0)
 1380 0cec 90E0      		ldi r25,hi8(0)
 1381 0cee 0E94 0000 		call __mulsi3
 1382 0cf2 2FEF      		ldi r18,lo8(524287)
 1383 0cf4 3FEF      		ldi r19,hi8(524287)
 1384 0cf6 47E0      		ldi r20,hlo8(524287)
 1385 0cf8 50E0      		ldi r21,hhi8(524287)
 1386 0cfa 261B      		sub r18,r22
 1387 0cfc 370B      		sbc r19,r23
 1388 0cfe 480B      		sbc r20,r24
 1389 0d00 590B      		sbc r21,r25
 1390 0d02 2093 0000 		sts bankStates+64,r18
 1391 0d06 3093 0000 		sts (bankStates+64)+1,r19
 1392 0d0a 4093 0000 		sts (bankStates+64)+2,r20
 1393 0d0e 5093 0000 		sts (bankStates+64)+3,r21
 1394 0d12 00C0      		rjmp .L69
 1395               	.L67:
 1396               	.LM186:
 1397 0d14 8091 0000 		lds r24,bankStates+38
 1398 0d18 8823      		tst r24
 1399 0d1a 01F0      		breq .+2
 1400 0d1c 00C0      		rjmp .L71
 1401               	.LM187:
 1402 0d1e 2091 0000 		lds r18,bankStates+64
 1403 0d22 3091 0000 		lds r19,(bankStates+64)+1
 1404 0d26 4091 0000 		lds r20,(bankStates+64)+2
 1405 0d2a 5091 0000 		lds r21,(bankStates+64)+3
 1406 0d2e 8091 0000 		lds r24,bankStates+57
 1407 0d32 9091 0000 		lds r25,(bankStates+57)+1
 1408 0d36 A091 0000 		lds r26,(bankStates+57)+2
 1409 0d3a B091 0000 		lds r27,(bankStates+57)+3
 1410 0d3e 2817      		cp r18,r24
 1411 0d40 3907      		cpc r19,r25
 1412 0d42 4A07      		cpc r20,r26
 1413 0d44 5B07      		cpc r21,r27
 1414 0d46 01F4      		brne .L72
 1415 0d48 8091 0000 		lds r24,bankStates+35
 1416 0d4c 8130      		cpi r24,lo8(1)
 1417 0d4e 01F4      		brne .+2
 1418 0d50 00C0      		rjmp .L84
 1419               	.L72:
 1420               	.LM188:
 1421 0d52 2091 0000 		lds r18,bankStates+64
 1422 0d56 3091 0000 		lds r19,(bankStates+64)+1
 1423 0d5a 4091 0000 		lds r20,(bankStates+64)+2
 1424 0d5e 5091 0000 		lds r21,(bankStates+64)+3
 1425 0d62 8091 0000 		lds r24,bankStates+57
 1426 0d66 9091 0000 		lds r25,(bankStates+57)+1
 1427 0d6a A091 0000 		lds r26,(bankStates+57)+2
 1428 0d6e B091 0000 		lds r27,(bankStates+57)+3
 1429 0d72 2817      		cp r18,r24
 1430 0d74 3907      		cpc r19,r25
 1431 0d76 4A07      		cpc r20,r26
 1432 0d78 5B07      		cpc r21,r27
 1433 0d7a 01F4      		brne .L73
 1434               	.LM189:
 1435 0d7c 8091 0000 		lds r24,bankStates+53
 1436 0d80 9091 0000 		lds r25,(bankStates+53)+1
 1437 0d84 A091 0000 		lds r26,(bankStates+53)+2
 1438 0d88 B091 0000 		lds r27,(bankStates+53)+3
 1439 0d8c 00C0      		rjmp .L85
 1440               	.L73:
 1441               	.LM190:
 1442 0d8e 2091 0000 		lds r18,bankStates+64
 1443 0d92 3091 0000 		lds r19,(bankStates+64)+1
 1444 0d96 4091 0000 		lds r20,(bankStates+64)+2
 1445 0d9a 5091 0000 		lds r21,(bankStates+64)+3
 1446 0d9e 8091 0000 		lds r24,bankStates+49
 1447 0da2 9091 0000 		lds r25,(bankStates+49)+1
 1448 0da6 A091 0000 		lds r26,(bankStates+49)+2
 1449 0daa B091 0000 		lds r27,(bankStates+49)+3
 1450 0dae 2817      		cp r18,r24
 1451 0db0 3907      		cpc r19,r25
 1452 0db2 4A07      		cpc r20,r26
 1453 0db4 5B07      		cpc r21,r27
 1454 0db6 01F4      		brne .L74
 1455               	.LM191:
 1456 0db8 8091 0000 		lds r24,bankStates+45
 1457 0dbc 9091 0000 		lds r25,(bankStates+45)+1
 1458 0dc0 A091 0000 		lds r26,(bankStates+45)+2
 1459 0dc4 B091 0000 		lds r27,(bankStates+45)+3
 1460 0dc8 00C0      		rjmp .L85
 1461               	.L74:
 1462               	.LM192:
 1463 0dca 8091 0000 		lds r24,bankStates+64
 1464 0dce 9091 0000 		lds r25,(bankStates+64)+1
 1465 0dd2 A091 0000 		lds r26,(bankStates+64)+2
 1466 0dd6 B091 0000 		lds r27,(bankStates+64)+3
 1467 0dda 0196      		adiw r24,1
 1468 0ddc A11D      		adc r26,__zero_reg__
 1469 0dde B11D      		adc r27,__zero_reg__
 1470 0de0 00C0      		rjmp .L85
 1471               	.L71:
 1472               	.LM193:
 1473 0de2 2091 0000 		lds r18,bankStates+64
 1474 0de6 3091 0000 		lds r19,(bankStates+64)+1
 1475 0dea 4091 0000 		lds r20,(bankStates+64)+2
 1476 0dee 5091 0000 		lds r21,(bankStates+64)+3
 1477 0df2 8091 0000 		lds r24,bankStates+53
 1478 0df6 9091 0000 		lds r25,(bankStates+53)+1
 1479 0dfa A091 0000 		lds r26,(bankStates+53)+2
 1480 0dfe B091 0000 		lds r27,(bankStates+53)+3
 1481 0e02 2817      		cp r18,r24
 1482 0e04 3907      		cpc r19,r25
 1483 0e06 4A07      		cpc r20,r26
 1484 0e08 5B07      		cpc r21,r27
 1485 0e0a 01F4      		brne .L75
 1486 0e0c 8091 0000 		lds r24,bankStates+35
 1487 0e10 8130      		cpi r24,lo8(1)
 1488 0e12 01F4      		brne .L75
 1489               	.L84:
 1490               	.LM194:
 1491 0e14 1092 0000 		sts bankStates+34,__zero_reg__
 1492               	.LM195:
 1493 0e18 1092 0000 		sts bankStates+42,__zero_reg__
 1494 0e1c 00C0      		rjmp .L69
 1495               	.L75:
 1496               	.LM196:
 1497 0e1e 2091 0000 		lds r18,bankStates+64
 1498 0e22 3091 0000 		lds r19,(bankStates+64)+1
 1499 0e26 4091 0000 		lds r20,(bankStates+64)+2
 1500 0e2a 5091 0000 		lds r21,(bankStates+64)+3
 1501 0e2e 8091 0000 		lds r24,bankStates+53
 1502 0e32 9091 0000 		lds r25,(bankStates+53)+1
 1503 0e36 A091 0000 		lds r26,(bankStates+53)+2
 1504 0e3a B091 0000 		lds r27,(bankStates+53)+3
 1505 0e3e 2817      		cp r18,r24
 1506 0e40 3907      		cpc r19,r25
 1507 0e42 4A07      		cpc r20,r26
 1508 0e44 5B07      		cpc r21,r27
 1509 0e46 01F4      		brne .L76
 1510               	.LM197:
 1511 0e48 8091 0000 		lds r24,bankStates+57
 1512 0e4c 9091 0000 		lds r25,(bankStates+57)+1
 1513 0e50 A091 0000 		lds r26,(bankStates+57)+2
 1514 0e54 B091 0000 		lds r27,(bankStates+57)+3
 1515 0e58 00C0      		rjmp .L85
 1516               	.L76:
 1517               	.LM198:
 1518 0e5a 2091 0000 		lds r18,bankStates+64
 1519 0e5e 3091 0000 		lds r19,(bankStates+64)+1
 1520 0e62 4091 0000 		lds r20,(bankStates+64)+2
 1521 0e66 5091 0000 		lds r21,(bankStates+64)+3
 1522 0e6a 8091 0000 		lds r24,bankStates+45
 1523 0e6e 9091 0000 		lds r25,(bankStates+45)+1
 1524 0e72 A091 0000 		lds r26,(bankStates+45)+2
 1525 0e76 B091 0000 		lds r27,(bankStates+45)+3
 1526 0e7a 2817      		cp r18,r24
 1527 0e7c 3907      		cpc r19,r25
 1528 0e7e 4A07      		cpc r20,r26
 1529 0e80 5B07      		cpc r21,r27
 1530 0e82 01F4      		brne .L77
 1531               	.LM199:
 1532 0e84 8091 0000 		lds r24,bankStates+49
 1533 0e88 9091 0000 		lds r25,(bankStates+49)+1
 1534 0e8c A091 0000 		lds r26,(bankStates+49)+2
 1535 0e90 B091 0000 		lds r27,(bankStates+49)+3
 1536 0e94 00C0      		rjmp .L85
 1537               	.L77:
 1538               	.LM200:
 1539 0e96 8091 0000 		lds r24,bankStates+64
 1540 0e9a 9091 0000 		lds r25,(bankStates+64)+1
 1541 0e9e A091 0000 		lds r26,(bankStates+64)+2
 1542 0ea2 B091 0000 		lds r27,(bankStates+64)+3
 1543 0ea6 0197      		sbiw r24,1
 1544 0ea8 A109      		sbc r26,__zero_reg__
 1545 0eaa B109      		sbc r27,__zero_reg__
 1546               	.L85:
 1547 0eac 8093 0000 		sts bankStates+64,r24
 1548 0eb0 9093 0000 		sts (bankStates+64)+1,r25
 1549 0eb4 A093 0000 		sts (bankStates+64)+2,r26
 1550 0eb8 B093 0000 		sts (bankStates+64)+3,r27
 1551               	.L69:
 1552               	.LM201:
 1553 0ebc 43B1      		in r20,35-32
 1554               	.LVL20:
 1555               	.LM202:
 1556 0ebe 129A      		sbi 34-32,2
 1557               	.LM203:
 1558 0ec0 8FEF      		ldi r24,lo8(-1)
 1559 0ec2 84B9      		out 36-32,r24
 1560               	.LM204:
 1561 0ec4 8091 0000 		lds r24,bankStates+41
 1562 0ec8 8823      		tst r24
 1563 0eca 01F0      		breq .L78
 1564               	.LM205:
 1565 0ecc 4058      		subi r20,lo8(-(-128))
 1566               	.LM206:
 1567 0ece 2091 0000 		lds r18,bankStates+41
 1568 0ed2 8FEF      		ldi r24,lo8(255)
 1569 0ed4 90E0      		ldi r25,hi8(255)
 1570 0ed6 00C0      		rjmp 2f
 1571 0ed8 880F      	1:	lsl r24
 1572 0eda 991F      		rol r25
 1573 0edc 2A95      	2:	dec r18
 1574 0ede 02F4      		brpl 1b
 1575 0ee0 4823      		and r20,r24
 1576               	.LM207:
 1577 0ee2 4058      		subi r20,lo8(-(-128))
 1578               	.L78:
 1579               	.LM208:
 1580 0ee4 242F      		mov r18,r20
 1581 0ee6 3327      		clr r19
 1582 0ee8 27FD      		sbrc r18,7
 1583 0eea 3095      		com r19
 1584               	.LVL21:
 1585 0eec 8091 0000 		lds r24,adcByte
 1586 0ef0 9927      		clr r25
 1587 0ef2 87FD      		sbrc r24,7
 1588 0ef4 9095      		com r25
 1589 0ef6 280F      		add r18,r24
 1590 0ef8 391F      		adc r19,r25
 1591 0efa 8FEF      		ldi r24,hi8(-128)
 1592 0efc 2038      		cpi r18,lo8(-128)
 1593 0efe 3807      		cpc r19,r24
 1594 0f00 04F4      		brge .L79
 1595 0f02 20E8      		ldi r18,lo8(-128)
 1596 0f04 3FEF      		ldi r19,hi8(-128)
 1597               	.L79:
 1598               	.LM209:
 1599 0f06 C901      		movw r24,r18
 1600 0f08 2038      		cpi r18,128
 1601 0f0a 3105      		cpc r19,__zero_reg__
 1602 0f0c 04F0      		brlt .L80
 1603 0f0e 8FE7      		ldi r24,lo8(127)
 1604 0f10 90E0      		ldi r25,hi8(127)
 1605               	.LVL22:
 1606               	.L80:
 1607 0f12 85B9      		out 37-32,r24
 1608               	.LM210:
 1609 0f14 1198      		cbi 34-32,1
 1610               	.LM211:
 1611 0f16 119A      		sbi 34-32,1
 1612               	.L54:
 1613               	.LM212:
 1614 0f18 842F      		mov r24,r20
 1615               	.LVL23:
 1616               	/* epilogue start */
 1617 0f1a 0895      		ret
 1618               	.LFE4:
 1621               	OutputMultiplyBanks:
 1622               	.LFB5:
 1623               	.LM213:
 1624               	/* prologue: function */
 1625               	/* frame size = 0 */
 1626               	.LM214:
 1627 0f1c 8091 0000 		lds r24,midiOutputBank0
 1628 0f20 682F      		mov r22,r24
 1629 0f22 7727      		clr r23
 1630 0f24 67FD      		sbrc r22,7
 1631 0f26 7095      		com r23
 1632               	.LVL24:
 1633 0f28 8091 0000 		lds r24,extIsrOutputBank0
 1634 0f2c 9927      		clr r25
 1635 0f2e 87FD      		sbrc r24,7
 1636 0f30 9095      		com r25
 1637 0f32 680F      		add r22,r24
 1638 0f34 791F      		adc r23,r25
 1639 0f36 8FEF      		ldi r24,hi8(-128)
 1640 0f38 6038      		cpi r22,lo8(-128)
 1641 0f3a 7807      		cpc r23,r24
 1642 0f3c 04F4      		brge .L92
 1643 0f3e 60E8      		ldi r22,lo8(-128)
 1644 0f40 7FEF      		ldi r23,hi8(-128)
 1645               	.L92:
 1646               	.LM215:
 1647 0f42 8091 0000 		lds r24,midiOutputBank1
 1648 0f46 282F      		mov r18,r24
 1649 0f48 3327      		clr r19
 1650 0f4a 27FD      		sbrc r18,7
 1651 0f4c 3095      		com r19
 1652               	.LVL25:
 1653 0f4e 8091 0000 		lds r24,extIsrOutputBank1
 1654 0f52 9927      		clr r25
 1655 0f54 87FD      		sbrc r24,7
 1656 0f56 9095      		com r25
 1657 0f58 280F      		add r18,r24
 1658 0f5a 391F      		adc r19,r25
 1659 0f5c 8FEF      		ldi r24,hi8(-127)
 1660 0f5e 2138      		cpi r18,lo8(-127)
 1661 0f60 3807      		cpc r19,r24
 1662 0f62 04F4      		brge .L93
 1663 0f64 21E8      		ldi r18,lo8(-127)
 1664 0f66 3FEF      		ldi r19,hi8(-127)
 1665               	.L93:
 1666               	.LM216:
 1667 0f68 A901      		movw r20,r18
 1668 0f6a 2038      		cpi r18,128
 1669 0f6c 3105      		cpc r19,__zero_reg__
 1670 0f6e 04F0      		brlt .L94
 1671 0f70 4FE7      		ldi r20,lo8(127)
 1672 0f72 50E0      		ldi r21,hi8(127)
 1673               	.LVL26:
 1674               	.L94:
 1675 0f74 9B01      		movw r18,r22
 1676 0f76 6038      		cpi r22,128
 1677 0f78 7105      		cpc r23,__zero_reg__
 1678 0f7a 04F0      		brlt .L95
 1679 0f7c 2FE7      		ldi r18,lo8(127)
 1680 0f7e 30E0      		ldi r19,hi8(127)
 1681               	.LVL27:
 1682               	.L95:
 1683               	.LM217:
 1684 0f80 429F      		mul r20,r18
 1685 0f82 C001      		movw r24,r0
 1686 0f84 439F      		mul r20,r19
 1687 0f86 900D      		add r25,r0
 1688 0f88 529F      		mul r21,r18
 1689 0f8a 900D      		add r25,r0
 1690 0f8c 1124      		clr r1
 1691 0f8e 60E4      		ldi r22,lo8(64)
 1692 0f90 70E0      		ldi r23,hi8(64)
 1693 0f92 0E94 0000 		call __divmodhi4
 1694 0f96 6058      		subi r22,lo8(-(-128))
 1695               	.LVL28:
 1696               	.LM218:
 1697 0f98 8091 0000 		lds r24,lastDacByte
 1698 0f9c 6817      		cp r22,r24
 1699 0f9e 01F0      		breq .L96
 1700               	.LM219:
 1701 0fa0 8FEF      		ldi r24,lo8(-1)
 1702 0fa2 84B9      		out 36-32,r24
 1703               	.LM220:
 1704 0fa4 65B9      		out 37-32,r22
 1705               	.LM221:
 1706 0fa6 159A      		sbi 34-32,5
 1707               	.LM222:
 1708 0fa8 1598      		cbi 34-32,5
 1709               	.L96:
 1710               	.LM223:
 1711 0faa 6093 0000 		sts lastDacByte,r22
 1712               	/* epilogue start */
 1713               	.LM224:
 1714 0fae 0895      		ret
 1715               	.LFE5:
 1718               	OutputAddBanks:
 1719               	.LFB6:
 1720               	.LM225:
 1721               	/* prologue: function */
 1722               	/* frame size = 0 */
 1723               	.LM226:
 1724 0fb0 8091 0000 		lds r24,extIsrOutputBank1
 1725 0fb4 282F      		mov r18,r24
 1726 0fb6 3327      		clr r19
 1727 0fb8 27FD      		sbrc r18,7
 1728 0fba 3095      		com r19
 1729               	.LVL29:
 1730 0fbc 8091 0000 		lds r24,extIsrOutputBank0
 1731 0fc0 9927      		clr r25
 1732 0fc2 87FD      		sbrc r24,7
 1733 0fc4 9095      		com r25
 1734 0fc6 280F      		add r18,r24
 1735 0fc8 391F      		adc r19,r25
 1736 0fca 8091 0000 		lds r24,midiOutputBank0
 1737 0fce 9927      		clr r25
 1738 0fd0 87FD      		sbrc r24,7
 1739 0fd2 9095      		com r25
 1740 0fd4 280F      		add r18,r24
 1741 0fd6 391F      		adc r19,r25
 1742 0fd8 8091 0000 		lds r24,midiOutputBank1
 1743 0fdc 9927      		clr r25
 1744 0fde 87FD      		sbrc r24,7
 1745 0fe0 9095      		com r25
 1746 0fe2 280F      		add r18,r24
 1747 0fe4 391F      		adc r19,r25
 1748 0fe6 8FEF      		ldi r24,hi8(-128)
 1749 0fe8 2038      		cpi r18,lo8(-128)
 1750 0fea 3807      		cpc r19,r24
 1751 0fec 04F4      		brge .L99
 1752 0fee 20E8      		ldi r18,lo8(-128)
 1753 0ff0 3FEF      		ldi r19,hi8(-128)
 1754               	.L99:
 1755               	.LM227:
 1756 0ff2 C901      		movw r24,r18
 1757 0ff4 2038      		cpi r18,128
 1758 0ff6 3105      		cpc r19,__zero_reg__
 1759 0ff8 04F0      		brlt .L100
 1760 0ffa 8FE7      		ldi r24,lo8(127)
 1761 0ffc 90E0      		ldi r25,hi8(127)
 1762               	.LVL30:
 1763               	.L100:
 1764               	.LM228:
 1765 0ffe 982F      		mov r25,r24
 1766               	.LVL31:
 1767 1000 9058      		subi r25,lo8(-(-128))
 1768               	.LM229:
 1769 1002 8091 0000 		lds r24,lastDacByte
 1770 1006 9817      		cp r25,r24
 1771 1008 01F0      		breq .L101
 1772               	.LM230:
 1773 100a 8FEF      		ldi r24,lo8(-1)
 1774 100c 84B9      		out 36-32,r24
 1775               	.LM231:
 1776 100e 95B9      		out 37-32,r25
 1777               	.LM232:
 1778 1010 159A      		sbi 34-32,5
 1779               	.LM233:
 1780 1012 1598      		cbi 34-32,5
 1781               	.L101:
 1782               	.LM234:
 1783 1014 9093 0000 		sts lastDacByte,r25
 1784               	/* epilogue start */
 1785               	.LM235:
 1786 1018 0895      		ret
 1787               	.LFE6:
 1790               	OutputXorBanks:
 1791               	.LFB7:
 1792               	.LM236:
 1793               	/* prologue: function */
 1794               	/* frame size = 0 */
 1795               	.LM237:
 1796 101a 8091 0000 		lds r24,midiOutputBank0
 1797 101e 482F      		mov r20,r24
 1798 1020 5527      		clr r21
 1799 1022 47FD      		sbrc r20,7
 1800 1024 5095      		com r21
 1801               	.LVL32:
 1802 1026 8091 0000 		lds r24,extIsrOutputBank0
 1803 102a 9927      		clr r25
 1804 102c 87FD      		sbrc r24,7
 1805 102e 9095      		com r25
 1806 1030 480F      		add r20,r24
 1807 1032 591F      		adc r21,r25
 1808 1034 8FEF      		ldi r24,hi8(-128)
 1809 1036 4038      		cpi r20,lo8(-128)
 1810 1038 5807      		cpc r21,r24
 1811 103a 04F4      		brge .L104
 1812 103c 40E8      		ldi r20,lo8(-128)
 1813 103e 5FEF      		ldi r21,hi8(-128)
 1814               	.L104:
 1815               	.LM238:
 1816 1040 8091 0000 		lds r24,midiOutputBank1
 1817 1044 282F      		mov r18,r24
 1818 1046 3327      		clr r19
 1819 1048 27FD      		sbrc r18,7
 1820 104a 3095      		com r19
 1821               	.LVL33:
 1822 104c 8091 0000 		lds r24,extIsrOutputBank1
 1823 1050 9927      		clr r25
 1824 1052 87FD      		sbrc r24,7
 1825 1054 9095      		com r25
 1826 1056 280F      		add r18,r24
 1827 1058 391F      		adc r19,r25
 1828 105a 8FEF      		ldi r24,hi8(-128)
 1829 105c 2038      		cpi r18,lo8(-128)
 1830 105e 3807      		cpc r19,r24
 1831 1060 04F4      		brge .L105
 1832 1062 20E8      		ldi r18,lo8(-128)
 1833 1064 3FEF      		ldi r19,hi8(-128)
 1834               	.L105:
 1835               	.LM239:
 1836 1066 2038      		cpi r18,128
 1837 1068 3105      		cpc r19,__zero_reg__
 1838 106a 04F0      		brlt .L106
 1839 106c 2FE7      		ldi r18,lo8(127)
 1840 106e 30E0      		ldi r19,hi8(127)
 1841               	.LVL34:
 1842               	.L106:
 1843 1070 CA01      		movw r24,r20
 1844 1072 4038      		cpi r20,128
 1845 1074 5105      		cpc r21,__zero_reg__
 1846 1076 04F0      		brlt .L107
 1847 1078 8FE7      		ldi r24,lo8(127)
 1848 107a 90E0      		ldi r25,hi8(127)
 1849               	.LVL35:
 1850               	.L107:
 1851 107c 922F      		mov r25,r18
 1852               	.LVL36:
 1853 107e 9827      		eor r25,r24
 1854               	.LM240:
 1855 1080 8091 0000 		lds r24,lastDacByte
 1856               	.LVL37:
 1857 1084 9817      		cp r25,r24
 1858 1086 01F0      		breq .L108
 1859               	.LM241:
 1860 1088 8FEF      		ldi r24,lo8(-1)
 1861 108a 84B9      		out 36-32,r24
 1862               	.LM242:
 1863 108c 95B9      		out 37-32,r25
 1864               	.LM243:
 1865 108e 159A      		sbi 34-32,5
 1866               	.LM244:
 1867 1090 1598      		cbi 34-32,5
 1868               	.L108:
 1869               	.LM245:
 1870 1092 9093 0000 		sts lastDacByte,r25
 1871               	/* epilogue start */
 1872               	.LM246:
 1873 1096 0895      		ret
 1874               	.LFE7:
 1877               	OutputAndBanks:
 1878               	.LFB8:
 1879               	.LM247:
 1880               	/* prologue: function */
 1881               	/* frame size = 0 */
 1882               	.LM248:
 1883 1098 8091 0000 		lds r24,midiOutputBank0
 1884 109c 482F      		mov r20,r24
 1885 109e 5527      		clr r21
 1886 10a0 47FD      		sbrc r20,7
 1887 10a2 5095      		com r21
 1888               	.LVL38:
 1889 10a4 8091 0000 		lds r24,extIsrOutputBank0
 1890 10a8 9927      		clr r25
 1891 10aa 87FD      		sbrc r24,7
 1892 10ac 9095      		com r25
 1893 10ae 480F      		add r20,r24
 1894 10b0 591F      		adc r21,r25
 1895 10b2 8FEF      		ldi r24,hi8(-128)
 1896 10b4 4038      		cpi r20,lo8(-128)
 1897 10b6 5807      		cpc r21,r24
 1898 10b8 04F4      		brge .L111
 1899 10ba 40E8      		ldi r20,lo8(-128)
 1900 10bc 5FEF      		ldi r21,hi8(-128)
 1901               	.L111:
 1902               	.LM249:
 1903 10be 8091 0000 		lds r24,midiOutputBank1
 1904 10c2 282F      		mov r18,r24
 1905 10c4 3327      		clr r19
 1906 10c6 27FD      		sbrc r18,7
 1907 10c8 3095      		com r19
 1908               	.LVL39:
 1909 10ca 8091 0000 		lds r24,extIsrOutputBank1
 1910 10ce 9927      		clr r25
 1911 10d0 87FD      		sbrc r24,7
 1912 10d2 9095      		com r25
 1913 10d4 280F      		add r18,r24
 1914 10d6 391F      		adc r19,r25
 1915 10d8 8FEF      		ldi r24,hi8(-128)
 1916 10da 2038      		cpi r18,lo8(-128)
 1917 10dc 3807      		cpc r19,r24
 1918 10de 04F4      		brge .L112
 1919 10e0 20E8      		ldi r18,lo8(-128)
 1920 10e2 3FEF      		ldi r19,hi8(-128)
 1921               	.L112:
 1922               	.LM250:
 1923 10e4 C901      		movw r24,r18
 1924 10e6 2038      		cpi r18,128
 1925 10e8 3105      		cpc r19,__zero_reg__
 1926 10ea 04F0      		brlt .L113
 1927 10ec 8FE7      		ldi r24,lo8(127)
 1928 10ee 90E0      		ldi r25,hi8(127)
 1929               	.LVL40:
 1930               	.L113:
 1931 10f0 282F      		mov r18,r24
 1932               	.LVL41:
 1933 10f2 2058      		subi r18,lo8(-(-128))
 1934 10f4 CA01      		movw r24,r20
 1935 10f6 4038      		cpi r20,128
 1936 10f8 5105      		cpc r21,__zero_reg__
 1937 10fa 04F0      		brlt .L114
 1938 10fc 8FE7      		ldi r24,lo8(127)
 1939 10fe 90E0      		ldi r25,hi8(127)
 1940               	.LVL42:
 1941               	.L114:
 1942 1100 982F      		mov r25,r24
 1943               	.LVL43:
 1944 1102 9058      		subi r25,lo8(-(-128))
 1945 1104 9223      		and r25,r18
 1946               	.LM251:
 1947 1106 8091 0000 		lds r24,lastDacByte
 1948 110a 9817      		cp r25,r24
 1949 110c 01F0      		breq .L115
 1950               	.LM252:
 1951 110e 8FEF      		ldi r24,lo8(-1)
 1952 1110 84B9      		out 36-32,r24
 1953               	.LM253:
 1954 1112 95B9      		out 37-32,r25
 1955               	.LM254:
 1956 1114 159A      		sbi 34-32,5
 1957               	.LM255:
 1958 1116 1598      		cbi 34-32,5
 1959               	.L115:
 1960               	.LM256:
 1961 1118 9093 0000 		sts lastDacByte,r25
 1962               	/* epilogue start */
 1963               	.LM257:
 1964 111c 0895      		ret
 1965               	.LFE8:
 1967               	.global	__vector_12
 1969               	__vector_12:
 1970               	.LFB9:
 1971               	.LM258:
 1972 111e 1F92      		push __zero_reg__
 1973 1120 0F92      		push r0
 1974 1122 0FB6      		in r0,__SREG__
 1975 1124 0F92      		push r0
 1976 1126 1124      		clr __zero_reg__
 1977 1128 2F93      		push r18
 1978 112a 3F93      		push r19
 1979 112c 4F93      		push r20
 1980 112e 5F93      		push r21
 1981 1130 6F93      		push r22
 1982 1132 7F93      		push r23
 1983 1134 8F93      		push r24
 1984 1136 9F93      		push r25
 1985 1138 AF93      		push r26
 1986 113a BF93      		push r27
 1987 113c EF93      		push r30
 1988 113e FF93      		push r31
 1989               	/* prologue: Signal */
 1990               	/* frame size = 0 */
 1991               	.LM259:
 1992 1140 8091 0000 		lds r24,bankStates+2
 1993 1144 8823      		tst r24
 1994 1146 01F0      		breq .L118
 1995 1148 8091 0000 		lds r24,bankStates+2
 1996 114c 8823      		tst r24
 1997 114e 01F0      		breq .L119
 1998 1150 8091 0000 		lds r24,flipFlop.2125
 1999 1154 8823      		tst r24
 2000 1156 01F0      		breq .L119
 2001               	.L118:
 2002               	.LM260:
 2003 1158 0E94 0000 		call UpdateAudioChannel0
 2004 115c 8093 0000 		sts extIsrOutputBank0,r24
 2005               	.L119:
 2006               	.LM261:
 2007 1160 1092 0000 		sts flipFlop.2125,__zero_reg__
 2008               	.LM262:
 2009 1164 E091 0000 		lds r30,UpdateOutput
 2010 1168 F091 0000 		lds r31,(UpdateOutput)+1
 2011 116c 0995      		icall
 2012               	.LM263:
 2013 116e 8091 7A00 		lds r24,122
 2014 1172 86FD      		sbrc r24,6
 2015 1174 00C0      		rjmp .L121
 2016               	.LM264:
 2017 1176 8091 7900 		lds r24,121
 2018 117a 8058      		subi r24,lo8(-(-128))
 2019 117c 8093 0000 		sts adcByte,r24
 2020               	.LM265:
 2021 1180 8091 7A00 		lds r24,122
 2022 1184 8064      		ori r24,lo8(64)
 2023 1186 8093 7A00 		sts 122,r24
 2024               	.L121:
 2025               	/* epilogue start */
 2026               	.LM266:
 2027 118a FF91      		pop r31
 2028 118c EF91      		pop r30
 2029 118e BF91      		pop r27
 2030 1190 AF91      		pop r26
 2031 1192 9F91      		pop r25
 2032 1194 8F91      		pop r24
 2033 1196 7F91      		pop r23
 2034 1198 6F91      		pop r22
 2035 119a 5F91      		pop r21
 2036 119c 4F91      		pop r20
 2037 119e 3F91      		pop r19
 2038 11a0 2F91      		pop r18
 2039 11a2 0F90      		pop r0
 2040 11a4 0FBE      		out __SREG__,r0
 2041 11a6 0F90      		pop r0
 2042 11a8 1F90      		pop __zero_reg__
 2043 11aa 1895      		reti
 2044               	.LFE9:
 2046               	.global	__vector_6
 2048               	__vector_6:
 2049               	.LFB10:
 2050               	.LM267:
 2051 11ac 1F92      		push __zero_reg__
 2052 11ae 0F92      		push r0
 2053 11b0 0FB6      		in r0,__SREG__
 2054 11b2 0F92      		push r0
 2055 11b4 1124      		clr __zero_reg__
 2056 11b6 2F93      		push r18
 2057 11b8 3F93      		push r19
 2058 11ba 4F93      		push r20
 2059 11bc 5F93      		push r21
 2060 11be 6F93      		push r22
 2061 11c0 7F93      		push r23
 2062 11c2 8F93      		push r24
 2063 11c4 9F93      		push r25
 2064 11c6 AF93      		push r26
 2065 11c8 BF93      		push r27
 2066 11ca EF93      		push r30
 2067 11cc FF93      		push r31
 2068               	/* prologue: Signal */
 2069               	/* frame size = 0 */
 2070               	.LM268:
 2071 11ce 8091 0000 		lds r24,bankStates+36
 2072 11d2 8823      		tst r24
 2073 11d4 01F0      		breq .L123
 2074 11d6 8091 0000 		lds r24,bankStates+36
 2075 11da 8823      		tst r24
 2076 11dc 01F0      		breq .L124
 2077 11de 8091 0000 		lds r24,flipFlop.2149
 2078 11e2 8823      		tst r24
 2079 11e4 01F0      		breq .L124
 2080               	.L123:
 2081               	.LM269:
 2082 11e6 0E94 0000 		call UpdateAudioChannel1
 2083 11ea 8093 0000 		sts extIsrOutputBank1,r24
 2084               	.L124:
 2085               	.LM270:
 2086 11ee 1092 0000 		sts flipFlop.2149,__zero_reg__
 2087               	.LM271:
 2088 11f2 E091 0000 		lds r30,UpdateOutput
 2089 11f6 F091 0000 		lds r31,(UpdateOutput)+1
 2090 11fa 0995      		icall
 2091               	.LM272:
 2092 11fc 8091 7A00 		lds r24,122
 2093 1200 86FD      		sbrc r24,6
 2094 1202 00C0      		rjmp .L125
 2095               	.LM273:
 2096 1204 8091 7900 		lds r24,121
 2097 1208 8058      		subi r24,lo8(-(-128))
 2098 120a 8093 0000 		sts adcByte,r24
 2099               	.LM274:
 2100 120e 8091 7A00 		lds r24,122
 2101 1212 8064      		ori r24,lo8(64)
 2102 1214 8093 7A00 		sts 122,r24
 2103               	.L125:
 2104               	.LM275:
 2105 1218 DA9A      		sbi 59-32,2
 2106               	/* epilogue start */
 2107               	.LM276:
 2108 121a FF91      		pop r31
 2109 121c EF91      		pop r30
 2110 121e BF91      		pop r27
 2111 1220 AF91      		pop r26
 2112 1222 9F91      		pop r25
 2113 1224 8F91      		pop r24
 2114 1226 7F91      		pop r23
 2115 1228 6F91      		pop r22
 2116 122a 5F91      		pop r21
 2117 122c 4F91      		pop r20
 2118 122e 3F91      		pop r19
 2119 1230 2F91      		pop r18
 2120 1232 0F90      		pop r0
 2121 1234 0FBE      		out __SREG__,r0
 2122 1236 0F90      		pop r0
 2123 1238 1F90      		pop __zero_reg__
 2124 123a 1895      		reti
 2125               	.LFE10:
 2127               	.global	__vector_13
 2129               	__vector_13:
 2130               	.LFB11:
 2131               	.LM277:
 2132 123c 1F92      		push __zero_reg__
 2133 123e 0F92      		push r0
 2134 1240 0FB6      		in r0,__SREG__
 2135 1242 0F92      		push r0
 2136 1244 1124      		clr __zero_reg__
 2137 1246 EF92      		push r14
 2138 1248 FF92      		push r15
 2139 124a 0F93      		push r16
 2140 124c 1F93      		push r17
 2141 124e 2F93      		push r18
 2142 1250 3F93      		push r19
 2143 1252 4F93      		push r20
 2144 1254 5F93      		push r21
 2145 1256 6F93      		push r22
 2146 1258 7F93      		push r23
 2147 125a 8F93      		push r24
 2148 125c 9F93      		push r25
 2149 125e AF93      		push r26
 2150 1260 BF93      		push r27
 2151 1262 EF93      		push r30
 2152 1264 FF93      		push r31
 2153               	/* prologue: Signal */
 2154               	/* frame size = 0 */
 2155               	.LM278:
 2156 1266 8091 0000 		lds r24,bankStates+2
 2157 126a 8823      		tst r24
 2158 126c 01F0      		breq .L128
 2159 126e 8091 0000 		lds r24,bankStates+2
 2160 1272 8823      		tst r24
 2161 1274 01F0      		breq .L129
 2162 1276 8091 0000 		lds r24,flipFlop.2178
 2163 127a 8823      		tst r24
 2164 127c 01F0      		breq .L129
 2165               	.L128:
 2166               	.LM279:
 2167 127e 0E94 0000 		call UpdateAudioChannel0
 2168 1282 8093 0000 		sts midiOutputBank0,r24
 2169               	.L129:
 2170               	.LM280:
 2171 1286 8091 0000 		lds r24,bankStates+6
 2172 128a 8823      		tst r24
 2173 128c 01F0      		breq .L130
 2174               	.LM281:
 2175 128e 2091 0000 		lds r18,bankStates+6
 2176 1292 6091 0000 		lds r22,bankStates+9
 2177 1296 7091 0000 		lds r23,(bankStates+9)+1
 2178               	.LM282:
 2179 129a 80E0      		ldi r24,lo8(0)
 2180 129c 90E0      		ldi r25,hi8(0)
 2181 129e 30E0      		ldi r19,lo8(0)
 2182 12a0 40E0      		ldi r20,lo8(0)
 2183 12a2 50E0      		ldi r21,hi8(0)
 2184 12a4 0E94 0000 		call __mulsi3
 2185 12a8 2FE7      		ldi r18,lo8(127)
 2186 12aa 30E0      		ldi r19,hi8(127)
 2187 12ac 40E0      		ldi r20,hlo8(127)
 2188 12ae 50E0      		ldi r21,hhi8(127)
 2189 12b0 0E94 0000 		call __udivmodsi4
 2190               	.LM283:
 2191 12b4 E090 8800 		lds r14,136
 2192 12b8 F090 8900 		lds r15,(136)+1
 2193 12bc 0091 0000 		lds r16,bankStates+9
 2194 12c0 1091 0000 		lds r17,(bankStates+9)+1
 2195 12c4 6091 0000 		lds r22,random31
 2196 12c8 7091 0000 		lds r23,(random31)+1
 2197 12cc 8091 0000 		lds r24,(random31)+2
 2198 12d0 9091 0000 		lds r25,(random31)+3
 2199 12d4 0E94 0000 		call __udivmodsi4
 2200 12d8 0E0D      		add r16,r14
 2201 12da 1F1D      		adc r17,r15
 2202 12dc 2091 0000 		lds r18,lastJitterValue.2177
 2203 12e0 3091 0000 		lds r19,(lastJitterValue.2177)+1
 2204 12e4 020F      		add r16,r18
 2205 12e6 131F      		adc r17,r19
 2206 12e8 061B      		sub r16,r22
 2207 12ea 170B      		sbc r17,r23
 2208 12ec 1093 8900 		sts (136)+1,r17
 2209 12f0 0093 8800 		sts 136,r16
 2210               	.LM284:
 2211 12f4 7093 0000 		sts (lastJitterValue.2177)+1,r23
 2212 12f8 6093 0000 		sts lastJitterValue.2177,r22
 2213 12fc 00C0      		rjmp .L131
 2214               	.L130:
 2215               	.LM285:
 2216 12fe 2091 8800 		lds r18,136
 2217 1302 3091 8900 		lds r19,(136)+1
 2218 1306 8091 0000 		lds r24,bankStates+9
 2219 130a 9091 0000 		lds r25,(bankStates+9)+1
 2220 130e 820F      		add r24,r18
 2221 1310 931F      		adc r25,r19
 2222 1312 9093 8900 		sts (136)+1,r25
 2223 1316 8093 8800 		sts 136,r24
 2224               	.L131:
 2225               	.LM286:
 2226 131a 1092 0000 		sts flipFlop.2178,__zero_reg__
 2227               	.LM287:
 2228 131e E091 0000 		lds r30,UpdateOutput
 2229 1322 F091 0000 		lds r31,(UpdateOutput)+1
 2230 1326 0995      		icall
 2231               	.LM288:
 2232 1328 8091 7A00 		lds r24,122
 2233 132c 86FD      		sbrc r24,6
 2234 132e 00C0      		rjmp .L133
 2235               	.LM289:
 2236 1330 8091 7900 		lds r24,121
 2237 1334 8058      		subi r24,lo8(-(-128))
 2238 1336 8093 0000 		sts adcByte,r24
 2239               	.LM290:
 2240 133a 8091 7A00 		lds r24,122
 2241 133e 8064      		ori r24,lo8(64)
 2242 1340 8093 7A00 		sts 122,r24
 2243               	.L133:
 2244               	/* epilogue start */
 2245               	.LM291:
 2246 1344 FF91      		pop r31
 2247 1346 EF91      		pop r30
 2248 1348 BF91      		pop r27
 2249 134a AF91      		pop r26
 2250 134c 9F91      		pop r25
 2251 134e 8F91      		pop r24
 2252 1350 7F91      		pop r23
 2253 1352 6F91      		pop r22
 2254 1354 5F91      		pop r21
 2255 1356 4F91      		pop r20
 2256 1358 3F91      		pop r19
 2257 135a 2F91      		pop r18
 2258 135c 1F91      		pop r17
 2259 135e 0F91      		pop r16
 2260 1360 FF90      		pop r15
 2261 1362 EF90      		pop r14
 2262 1364 0F90      		pop r0
 2263 1366 0FBE      		out __SREG__,r0
 2264 1368 0F90      		pop r0
 2265 136a 1F90      		pop __zero_reg__
 2266 136c 1895      		reti
 2267               	.LFE11:
 2269               	.global	__vector_14
 2271               	__vector_14:
 2272               	.LFB12:
 2273               	.LM292:
 2274 136e 1F92      		push __zero_reg__
 2275 1370 0F92      		push r0
 2276 1372 0FB6      		in r0,__SREG__
 2277 1374 0F92      		push r0
 2278 1376 1124      		clr __zero_reg__
 2279 1378 EF92      		push r14
 2280 137a FF92      		push r15
 2281 137c 0F93      		push r16
 2282 137e 1F93      		push r17
 2283 1380 2F93      		push r18
 2284 1382 3F93      		push r19
 2285 1384 4F93      		push r20
 2286 1386 5F93      		push r21
 2287 1388 6F93      		push r22
 2288 138a 7F93      		push r23
 2289 138c 8F93      		push r24
 2290 138e 9F93      		push r25
 2291 1390 AF93      		push r26
 2292 1392 BF93      		push r27
 2293 1394 EF93      		push r30
 2294 1396 FF93      		push r31
 2295               	/* prologue: Signal */
 2296               	/* frame size = 0 */
 2297               	.LM293:
 2298 1398 8091 0000 		lds r24,bankStates+36
 2299 139c 8823      		tst r24
 2300 139e 01F0      		breq .L135
 2301 13a0 8091 0000 		lds r24,bankStates+36
 2302 13a4 8823      		tst r24
 2303 13a6 01F0      		breq .L136
 2304 13a8 8091 0000 		lds r24,flipFlop.2223
 2305 13ac 8823      		tst r24
 2306 13ae 01F0      		breq .L136
 2307               	.L135:
 2308               	.LM294:
 2309 13b0 0E94 0000 		call UpdateAudioChannel1
 2310 13b4 8093 0000 		sts midiOutputBank1,r24
 2311               	.L136:
 2312               	.LM295:
 2313 13b8 8091 0000 		lds r24,bankStates+40
 2314 13bc 8823      		tst r24
 2315 13be 01F0      		breq .L137
 2316               	.LM296:
 2317 13c0 2091 0000 		lds r18,bankStates+40
 2318 13c4 6091 0000 		lds r22,bankStates+43
 2319 13c8 7091 0000 		lds r23,(bankStates+43)+1
 2320               	.LM297:
 2321 13cc 80E0      		ldi r24,lo8(0)
 2322 13ce 90E0      		ldi r25,hi8(0)
 2323 13d0 30E0      		ldi r19,lo8(0)
 2324 13d2 40E0      		ldi r20,lo8(0)
 2325 13d4 50E0      		ldi r21,hi8(0)
 2326 13d6 0E94 0000 		call __mulsi3
 2327 13da 2FE7      		ldi r18,lo8(127)
 2328 13dc 30E0      		ldi r19,hi8(127)
 2329 13de 40E0      		ldi r20,hlo8(127)
 2330 13e0 50E0      		ldi r21,hhi8(127)
 2331 13e2 0E94 0000 		call __udivmodsi4
 2332               	.LM298:
 2333 13e6 E090 8A00 		lds r14,138
 2334 13ea F090 8B00 		lds r15,(138)+1
 2335 13ee 0091 0000 		lds r16,bankStates+43
 2336 13f2 1091 0000 		lds r17,(bankStates+43)+1
 2337 13f6 6091 0000 		lds r22,random31
 2338 13fa 7091 0000 		lds r23,(random31)+1
 2339 13fe 8091 0000 		lds r24,(random31)+2
 2340 1402 9091 0000 		lds r25,(random31)+3
 2341 1406 0E94 0000 		call __udivmodsi4
 2342 140a 0E0D      		add r16,r14
 2343 140c 1F1D      		adc r17,r15
 2344 140e 2091 0000 		lds r18,lastJitterValue.2222
 2345 1412 3091 0000 		lds r19,(lastJitterValue.2222)+1
 2346 1416 020F      		add r16,r18
 2347 1418 131F      		adc r17,r19
 2348 141a 061B      		sub r16,r22
 2349 141c 170B      		sbc r17,r23
 2350 141e 1093 8B00 		sts (138)+1,r17
 2351 1422 0093 8A00 		sts 138,r16
 2352               	.LM299:
 2353 1426 7093 0000 		sts (lastJitterValue.2222)+1,r23
 2354 142a 6093 0000 		sts lastJitterValue.2222,r22
 2355 142e 00C0      		rjmp .L138
 2356               	.L137:
 2357               	.LM300:
 2358 1430 2091 8A00 		lds r18,138
 2359 1434 3091 8B00 		lds r19,(138)+1
 2360 1438 8091 0000 		lds r24,bankStates+43
 2361 143c 9091 0000 		lds r25,(bankStates+43)+1
 2362 1440 820F      		add r24,r18
 2363 1442 931F      		adc r25,r19
 2364 1444 9093 8B00 		sts (138)+1,r25
 2365 1448 8093 8A00 		sts 138,r24
 2366               	.L138:
 2367               	.LM301:
 2368 144c 1092 0000 		sts flipFlop.2223,__zero_reg__
 2369               	.LM302:
 2370 1450 E091 0000 		lds r30,UpdateOutput
 2371 1454 F091 0000 		lds r31,(UpdateOutput)+1
 2372 1458 0995      		icall
 2373               	.LM303:
 2374 145a 8091 7A00 		lds r24,122
 2375 145e 86FD      		sbrc r24,6
 2376 1460 00C0      		rjmp .L140
 2377               	.LM304:
 2378 1462 8091 7900 		lds r24,121
 2379 1466 8058      		subi r24,lo8(-(-128))
 2380 1468 8093 0000 		sts adcByte,r24
 2381               	.LM305:
 2382 146c 8091 7A00 		lds r24,122
 2383 1470 8064      		ori r24,lo8(64)
 2384 1472 8093 7A00 		sts 122,r24
 2385               	.L140:
 2386               	/* epilogue start */
 2387               	.LM306:
 2388 1476 FF91      		pop r31
 2389 1478 EF91      		pop r30
 2390 147a BF91      		pop r27
 2391 147c AF91      		pop r26
 2392 147e 9F91      		pop r25
 2393 1480 8F91      		pop r24
 2394 1482 7F91      		pop r23
 2395 1484 6F91      		pop r22
 2396 1486 5F91      		pop r21
 2397 1488 4F91      		pop r20
 2398 148a 3F91      		pop r19
 2399 148c 2F91      		pop r18
 2400 148e 1F91      		pop r17
 2401 1490 0F91      		pop r16
 2402 1492 FF90      		pop r15
 2403 1494 EF90      		pop r14
 2404 1496 0F90      		pop r0
 2405 1498 0FBE      		out __SREG__,r0
 2406 149a 0F90      		pop r0
 2407 149c 1F90      		pop __zero_reg__
 2408 149e 1895      		reti
 2409               	.LFE12:
 2411               	.global	__vector_9
 2413               	__vector_9:
 2414               	.LFB13:
 2415               	.LM307:
 2416 14a0 1F92      		push __zero_reg__
 2417 14a2 0F92      		push r0
 2418 14a4 0FB6      		in r0,__SREG__
 2419 14a6 0F92      		push r0
 2420 14a8 1124      		clr __zero_reg__
 2421 14aa 8F93      		push r24
 2422 14ac 9F93      		push r25
 2423               	/* prologue: Signal */
 2424               	/* frame size = 0 */
 2425               	.LM308:
 2426 14ae 8091 0000 		lds r24,ledPwm
 2427 14b2 9091 0000 		lds r25,pwmCount.2266
 2428 14b6 9817      		cp r25,r24
 2429 14b8 00F4      		brsh .L142
 2430               	.LM309:
 2431 14ba 8FEF      		ldi r24,lo8(-1)
 2432 14bc 85B9      		out 37-32,r24
 2433 14be 00C0      		rjmp .L143
 2434               	.L142:
 2435               	.LM310:
 2436 14c0 15B8      		out 37-32,__zero_reg__
 2437               	.L143:
 2438               	.LM311:
 2439 14c2 9F5F      		subi r25,lo8(-(1))
 2440 14c4 9093 0000 		sts pwmCount.2266,r25
 2441               	/* epilogue start */
 2442               	.LM312:
 2443 14c8 9F91      		pop r25
 2444 14ca 8F91      		pop r24
 2445 14cc 0F90      		pop r0
 2446 14ce 0FBE      		out __SREG__,r0
 2447 14d0 0F90      		pop r0
 2448 14d2 1F90      		pop __zero_reg__
 2449 14d4 1895      		reti
 2450               	.LFE13:
 2452               	.global	__vector_default
 2454               	__vector_default:
 2455               	.LFB14:
 2456               	.LM313:
 2457 14d6 1F92      		push __zero_reg__
 2458 14d8 0F92      		push r0
 2459 14da 0FB6      		in r0,__SREG__
 2460 14dc 0F92      		push r0
 2461 14de 1124      		clr __zero_reg__
 2462               	/* prologue: Signal */
 2463               	/* frame size = 0 */
 2464               	/* epilogue start */
 2465               	.LM314:
 2466 14e0 0F90      		pop r0
 2467 14e2 0FBE      		out __SREG__,r0
 2468 14e4 0F90      		pop r0
 2469 14e6 1F90      		pop __zero_reg__
 2470 14e8 1895      		reti
 2471               	.LFE14:
 2473               	.global	HandleSoftclock
 2475               	HandleSoftclock:
 2476               	.LFB16:
 2477               	.LM315:
 2478               	/* prologue: function */
 2479               	/* frame size = 0 */
 2480               	.LM316:
 2481 14ea A89B      		sbis 53-32,0
 2482 14ec 00C0      		rjmp .L149
 2483               	.LM317:
 2484 14ee A89A      		sbi 53-32,0
 2485               	.LM318:
 2486 14f0 8091 0000 		lds r24,systemTicks
 2487 14f4 9091 0000 		lds r25,(systemTicks)+1
 2488 14f8 0196      		adiw r24,1
 2489 14fa 9093 0000 		sts (systemTicks)+1,r25
 2490 14fe 8093 0000 		sts systemTicks,r24
 2491               	.L149:
 2492 1502 0895      		ret
 2493               	.LFE16:
 2496               	SetSampleClock:
 2497               	.LFB37:
 2498               	.LM319:
 2499               	.LVL44:
 2500               	/* prologue: function */
 2501               	/* frame size = 0 */
 2502 1504 282F      		mov r18,r24
 2503               	.LM320:
 2504 1506 90E0      		ldi r25,lo8(0)
 2505 1508 FC01      		movw r30,r24
 2506               	.LVL45:
 2507 150a B5E0      		ldi r27,5
 2508 150c EE0F      	1:	lsl r30
 2509 150e FF1F      		rol r31
 2510 1510 BA95      		dec r27
 2511 1512 01F4      		brne 1b
 2512 1514 880F      		lsl r24
 2513 1516 991F      		rol r25
 2514 1518 E80F      		add r30,r24
 2515 151a F91F      		adc r31,r25
 2516 151c E050      		subi r30,lo8(-(bankStates))
 2517 151e F040      		sbci r31,hi8(-(bankStates))
 2518 1520 6087      		std Z+8,r22
 2519               	.LM321:
 2520 1522 6230      		cpi r22,lo8(2)
 2521 1524 01F4      		brne .L151
 2522               	.LM322:
 2523 1526 822F      		mov r24,r18
 2524 1528 90E0      		ldi r25,lo8(0)
 2525 152a FC01      		movw r30,r24
 2526 152c 75E0      		ldi r23,5
 2527 152e EE0F      	1:	lsl r30
 2528 1530 FF1F      		rol r31
 2529 1532 7A95      		dec r23
 2530 1534 01F4      		brne 1b
 2531 1536 880F      		lsl r24
 2532 1538 991F      		rol r25
 2533               	.LVL46:
 2534 153a E80F      		add r30,r24
 2535 153c F91F      		adc r31,r25
 2536 153e E050      		subi r30,lo8(-(bankStates))
 2537 1540 F040      		sbci r31,hi8(-(bankStates))
 2538 1542 5287      		std Z+10,r21
 2539 1544 4187      		std Z+9,r20
 2540               	.LM323:
 2541 1546 2223      		tst r18
 2542 1548 01F4      		brne .L152
 2543               	.LM324:
 2544 154a 8091 8400 		lds r24,132
 2545 154e 9091 8500 		lds r25,(132)+1
 2546 1552 840F      		add r24,r20
 2547 1554 951F      		adc r25,r21
 2548 1556 9093 8900 		sts (136)+1,r25
 2549 155a 8093 8800 		sts 136,r24
 2550               	.LM325:
 2551 155e B19A      		sbi 54-32,1
 2552               	.LM326:
 2553 1560 8091 6F00 		lds r24,111
 2554 1564 8260      		ori r24,lo8(2)
 2555 1566 00C0      		rjmp .L156
 2556               	.L152:
 2557               	.LM327:
 2558 1568 8091 8400 		lds r24,132
 2559 156c 9091 8500 		lds r25,(132)+1
 2560 1570 840F      		add r24,r20
 2561 1572 951F      		adc r25,r21
 2562 1574 9093 8B00 		sts (138)+1,r25
 2563 1578 8093 8A00 		sts 138,r24
 2564               	.LM328:
 2565 157c B29A      		sbi 54-32,2
 2566               	.LM329:
 2567 157e 8091 6F00 		lds r24,111
 2568 1582 8460      		ori r24,lo8(4)
 2569               	.L156:
 2570 1584 8093 6F00 		sts 111,r24
 2571               	.LM330:
 2572 1588 81E0      		ldi r24,lo8(1)
 2573 158a 8093 8100 		sts 129,r24
 2574 158e 0895      		ret
 2575               	.LVL47:
 2576               	.L151:
 2577               	.LM331:
 2578 1590 6130      		cpi r22,lo8(1)
 2579 1592 01F4      		brne .L155
 2580               	.LM332:
 2581 1594 2223      		tst r18
 2582 1596 01F4      		brne .L154
 2583               	.LM333:
 2584 1598 8091 8100 		lds r24,129
 2585 159c 8064      		ori r24,lo8(64)
 2586 159e 8093 8100 		sts 129,r24
 2587               	.LM334:
 2588 15a2 B59A      		sbi 54-32,5
 2589               	.LM335:
 2590 15a4 8091 6F00 		lds r24,111
 2591 15a8 8062      		ori r24,lo8(32)
 2592 15aa 8093 6F00 		sts 111,r24
 2593 15ae 0895      		ret
 2594               	.L154:
 2595               	.LM336:
 2596 15b0 DA9A      		sbi 59-32,2
 2597               	.LM337:
 2598 15b2 84E0      		ldi r24,lo8(4)
 2599 15b4 8093 6800 		sts 104,r24
 2600               	.LM338:
 2601 15b8 80E1      		ldi r24,lo8(16)
 2602 15ba 8093 6D00 		sts 109,r24
 2603               	.L155:
 2604 15be 0895      		ret
 2605               	.LFE37:
 2608               	StartRecording:
 2609               	.LFB38:
 2610               	.LM339:
 2611               	.LVL48:
 2612 15c0 DF92      		push r13
 2613 15c2 EF92      		push r14
 2614 15c4 FF92      		push r15
 2615 15c6 0F93      		push r16
 2616 15c8 1F93      		push r17
 2617               	/* prologue: function */
 2618               	/* frame size = 0 */
 2619               	.LM340:
 2620 15ca DFB6      		in r13,__SREG__
 2621               	.LVL49:
 2622               	.LM341:
 2623               	/* #APP */
 2624               	 ;  2696 "WTPA.c" 1
 2625 15cc F894      		cli
 2626               	 ;  0 "" 2
 2627               	.LM342:
 2628               	/* #NOAPP */
 2629 15ce 282F      		mov r18,r24
 2630 15d0 30E0      		ldi r19,lo8(0)
 2631 15d2 F901      		movw r30,r18
 2632 15d4 05E0      		ldi r16,5
 2633 15d6 EE0F      	1:	lsl r30
 2634 15d8 FF1F      		rol r31
 2635 15da 0A95      		dec r16
 2636 15dc 01F4      		brne 1b
 2637 15de 220F      		lsl r18
 2638 15e0 331F      		rol r19
 2639 15e2 E20F      		add r30,r18
 2640 15e4 F31F      		adc r31,r19
 2641 15e6 E050      		subi r30,lo8(-(bankStates))
 2642 15e8 F040      		sbci r31,hi8(-(bankStates))
 2643 15ea 93E0      		ldi r25,lo8(3)
 2644 15ec 9083      		st Z,r25
 2645               	.LM343:
 2646 15ee 282F      		mov r18,r24
 2647 15f0 30E0      		ldi r19,lo8(0)
 2648 15f2 F901      		movw r30,r18
 2649 15f4 B5E0      		ldi r27,5
 2650 15f6 EE0F      	1:	lsl r30
 2651 15f8 FF1F      		rol r31
 2652 15fa BA95      		dec r27
 2653 15fc 01F4      		brne 1b
 2654 15fe 220F      		lsl r18
 2655 1600 331F      		rol r19
 2656 1602 E20F      		add r30,r18
 2657 1604 F31F      		adc r31,r19
 2658 1606 E050      		subi r30,lo8(-(bankStates))
 2659 1608 F040      		sbci r31,hi8(-(bankStates))
 2660 160a E784      		ldd r14,Z+15
 2661 160c F088      		ldd r15,Z+16
 2662 160e 0189      		ldd r16,Z+17
 2663 1610 1289      		ldd r17,Z+18
 2664 1612 282F      		mov r18,r24
 2665 1614 30E0      		ldi r19,lo8(0)
 2666 1616 F901      		movw r30,r18
 2667 1618 75E0      		ldi r23,5
 2668 161a EE0F      	1:	lsl r30
 2669 161c FF1F      		rol r31
 2670 161e 7A95      		dec r23
 2671 1620 01F4      		brne 1b
 2672 1622 220F      		lsl r18
 2673 1624 331F      		rol r19
 2674 1626 E20F      		add r30,r18
 2675 1628 F31F      		adc r31,r19
 2676 162a E050      		subi r30,lo8(-(bankStates))
 2677 162c F040      		sbci r31,hi8(-(bankStates))
 2678 162e E68E      		std Z+30,r14
 2679 1630 F78E      		std Z+31,r15
 2680 1632 00A3      		std Z+32,r16
 2681 1634 11A3      		std Z+33,r17
 2682               	.LM344:
 2683 1636 282F      		mov r18,r24
 2684 1638 30E0      		ldi r19,lo8(0)
 2685 163a F901      		movw r30,r18
 2686 163c B5E0      		ldi r27,5
 2687 163e EE0F      	1:	lsl r30
 2688 1640 FF1F      		rol r31
 2689 1642 BA95      		dec r27
 2690 1644 01F4      		brne 1b
 2691 1646 220F      		lsl r18
 2692 1648 331F      		rol r19
 2693 164a E20F      		add r30,r18
 2694 164c F31F      		adc r31,r19
 2695 164e E050      		subi r30,lo8(-(bankStates))
 2696 1650 F040      		sbci r31,hi8(-(bankStates))
 2697 1652 E784      		ldd r14,Z+15
 2698 1654 F088      		ldd r15,Z+16
 2699 1656 0189      		ldd r16,Z+17
 2700 1658 1289      		ldd r17,Z+18
 2701 165a 282F      		mov r18,r24
 2702 165c 30E0      		ldi r19,lo8(0)
 2703 165e F901      		movw r30,r18
 2704 1660 75E0      		ldi r23,5
 2705 1662 EE0F      	1:	lsl r30
 2706 1664 FF1F      		rol r31
 2707 1666 7A95      		dec r23
 2708 1668 01F4      		brne 1b
 2709 166a 220F      		lsl r18
 2710 166c 331F      		rol r19
 2711 166e E20F      		add r30,r18
 2712 1670 F31F      		adc r31,r19
 2713 1672 E050      		subi r30,lo8(-(bankStates))
 2714 1674 F040      		sbci r31,hi8(-(bankStates))
 2715 1676 E386      		std Z+11,r14
 2716 1678 F486      		std Z+12,r15
 2717 167a 0587      		std Z+13,r16
 2718 167c 1687      		std Z+14,r17
 2719               	.LM345:
 2720 167e 282F      		mov r18,r24
 2721 1680 30E0      		ldi r19,lo8(0)
 2722 1682 F901      		movw r30,r18
 2723 1684 B5E0      		ldi r27,5
 2724 1686 EE0F      	1:	lsl r30
 2725 1688 FF1F      		rol r31
 2726 168a BA95      		dec r27
 2727 168c 01F4      		brne 1b
 2728 168e 220F      		lsl r18
 2729 1690 331F      		rol r19
 2730 1692 E20F      		add r30,r18
 2731 1694 F31F      		adc r31,r19
 2732 1696 E050      		subi r30,lo8(-(bankStates))
 2733 1698 F040      		sbci r31,hi8(-(bankStates))
 2734 169a E784      		ldd r14,Z+15
 2735 169c F088      		ldd r15,Z+16
 2736 169e 0189      		ldd r16,Z+17
 2737 16a0 1289      		ldd r17,Z+18
 2738 16a2 282F      		mov r18,r24
 2739 16a4 30E0      		ldi r19,lo8(0)
 2740 16a6 F901      		movw r30,r18
 2741 16a8 75E0      		ldi r23,5
 2742 16aa EE0F      	1:	lsl r30
 2743 16ac FF1F      		rol r31
 2744 16ae 7A95      		dec r23
 2745 16b0 01F4      		brne 1b
 2746 16b2 220F      		lsl r18
 2747 16b4 331F      		rol r19
 2748 16b6 E20F      		add r30,r18
 2749 16b8 F31F      		adc r31,r19
 2750 16ba E050      		subi r30,lo8(-(bankStates))
 2751 16bc F040      		sbci r31,hi8(-(bankStates))
 2752 16be E78A      		std Z+23,r14
 2753 16c0 F08E      		std Z+24,r15
 2754 16c2 018F      		std Z+25,r16
 2755 16c4 128F      		std Z+26,r17
 2756               	.LM346:
 2757 16c6 282F      		mov r18,r24
 2758 16c8 30E0      		ldi r19,lo8(0)
 2759 16ca F901      		movw r30,r18
 2760 16cc B5E0      		ldi r27,5
 2761 16ce EE0F      	1:	lsl r30
 2762 16d0 FF1F      		rol r31
 2763 16d2 BA95      		dec r27
 2764 16d4 01F4      		brne 1b
 2765 16d6 220F      		lsl r18
 2766 16d8 331F      		rol r19
 2767 16da E20F      		add r30,r18
 2768 16dc F31F      		adc r31,r19
 2769 16de E050      		subi r30,lo8(-(bankStates))
 2770 16e0 F040      		sbci r31,hi8(-(bankStates))
 2771 16e2 E784      		ldd r14,Z+15
 2772 16e4 F088      		ldd r15,Z+16
 2773 16e6 0189      		ldd r16,Z+17
 2774 16e8 1289      		ldd r17,Z+18
 2775 16ea 282F      		mov r18,r24
 2776 16ec 30E0      		ldi r19,lo8(0)
 2777 16ee F901      		movw r30,r18
 2778 16f0 75E0      		ldi r23,5
 2779 16f2 EE0F      	1:	lsl r30
 2780 16f4 FF1F      		rol r31
 2781 16f6 7A95      		dec r23
 2782 16f8 01F4      		brne 1b
 2783 16fa 220F      		lsl r18
 2784 16fc 331F      		rol r19
 2785 16fe E20F      		add r30,r18
 2786 1700 F31F      		adc r31,r19
 2787 1702 E050      		subi r30,lo8(-(bankStates))
 2788 1704 F040      		sbci r31,hi8(-(bankStates))
 2789 1706 E38A      		std Z+19,r14
 2790 1708 F48A      		std Z+20,r15
 2791 170a 058B      		std Z+21,r16
 2792 170c 168B      		std Z+22,r17
 2793               	.LM347:
 2794 170e 282F      		mov r18,r24
 2795 1710 30E0      		ldi r19,lo8(0)
 2796 1712 F901      		movw r30,r18
 2797 1714 05E0      		ldi r16,5
 2798 1716 EE0F      	1:	lsl r30
 2799 1718 FF1F      		rol r31
 2800 171a 0A95      		dec r16
 2801 171c 01F4      		brne 1b
 2802 171e 220F      		lsl r18
 2803 1720 331F      		rol r19
 2804 1722 E20F      		add r30,r18
 2805 1724 F31F      		adc r31,r19
 2806 1726 E050      		subi r30,lo8(-(bankStates))
 2807 1728 F040      		sbci r31,hi8(-(bankStates))
 2808 172a 158E      		std Z+29,__zero_reg__
 2809               	.LM348:
 2810 172c 1092 0000 		sts outOfRam,__zero_reg__
 2811               	.LM349:
 2812 1730 0E94 0000 		call SetSampleClock
 2813               	.LVL50:
 2814               	.LM350:
 2815 1734 DFBE      		out __SREG__,r13
 2816               	.LM351:
 2817 1736 8091 7A00 		lds r24,122
 2818 173a 86FD      		sbrc r24,6
 2819 173c 00C0      		rjmp .L159
 2820               	.LM352:
 2821 173e 8091 7900 		lds r24,121
 2822 1742 8058      		subi r24,lo8(-(-128))
 2823 1744 8093 0000 		sts adcByte,r24
 2824               	.LM353:
 2825 1748 8091 7A00 		lds r24,122
 2826 174c 8064      		ori r24,lo8(64)
 2827 174e 8093 7A00 		sts 122,r24
 2828               	.L159:
 2829               	/* epilogue start */
 2830               	.LM354:
 2831 1752 1F91      		pop r17
 2832 1754 0F91      		pop r16
 2833 1756 FF90      		pop r15
 2834 1758 EF90      		pop r14
 2835 175a DF90      		pop r13
 2836               	.LVL51:
 2837 175c 0895      		ret
 2838               	.LFE38:
 2841               	StartPlayback:
 2842               	.LFB39:
 2843               	.LM355:
 2844               	.LVL52:
 2845 175e 1F93      		push r17
 2846               	/* prologue: function */
 2847               	/* frame size = 0 */
 2848 1760 782F      		mov r23,r24
 2849 1762 DA01      		movw r26,r20
 2850               	.LM356:
 2851 1764 1FB7      		in r17,__SREG__
 2852               	.LVL53:
 2853               	.LM357:
 2854               	/* #APP */
 2855               	 ;  2730 "WTPA.c" 1
 2856 1766 F894      		cli
 2857               	 ;  0 "" 2
 2858               	.LM358:
 2859               	/* #NOAPP */
 2860 1768 90E0      		ldi r25,lo8(0)
 2861 176a FC01      		movw r30,r24
 2862               	.LVL54:
 2863 176c 35E0      		ldi r19,5
 2864 176e EE0F      	1:	lsl r30
 2865 1770 FF1F      		rol r31
 2866 1772 3A95      		dec r19
 2867 1774 01F4      		brne 1b
 2868 1776 880F      		lsl r24
 2869 1778 991F      		rol r25
 2870 177a E80F      		add r30,r24
 2871 177c F91F      		adc r31,r25
 2872 177e E050      		subi r30,lo8(-(bankStates))
 2873 1780 F040      		sbci r31,hi8(-(bankStates))
 2874 1782 84E0      		ldi r24,lo8(4)
 2875 1784 8083      		st Z,r24
 2876               	.LM359:
 2877 1786 8091 0000 		lds r24,ledOnOffMask
 2878 178a 8068      		ori r24,lo8(-128)
 2879 178c 8093 0000 		sts ledOnOffMask,r24
 2880               	.LM360:
 2881 1790 872F      		mov r24,r23
 2882 1792 90E0      		ldi r25,lo8(0)
 2883 1794 FC01      		movw r30,r24
 2884 1796 55E0      		ldi r21,5
 2885 1798 EE0F      	1:	lsl r30
 2886 179a FF1F      		rol r31
 2887 179c 5A95      		dec r21
 2888 179e 01F4      		brne 1b
 2889 17a0 880F      		lsl r24
 2890 17a2 991F      		rol r25
 2891               	.LVL55:
 2892 17a4 E80F      		add r30,r24
 2893 17a6 F91F      		adc r31,r25
 2894 17a8 E050      		subi r30,lo8(-(bankStates))
 2895 17aa F040      		sbci r31,hi8(-(bankStates))
 2896 17ac 8381      		ldd r24,Z+3
 2897 17ae 8823      		tst r24
 2898 17b0 01F0      		breq .L161
 2899               	.LM361:
 2900 17b2 872F      		mov r24,r23
 2901 17b4 90E0      		ldi r25,lo8(0)
 2902 17b6 FC01      		movw r30,r24
 2903 17b8 35E0      		ldi r19,5
 2904 17ba EE0F      	1:	lsl r30
 2905 17bc FF1F      		rol r31
 2906 17be 3A95      		dec r19
 2907 17c0 01F4      		brne 1b
 2908 17c2 880F      		lsl r24
 2909 17c4 991F      		rol r25
 2910 17c6 E80F      		add r30,r24
 2911 17c8 F91F      		adc r31,r25
 2912 17ca E050      		subi r30,lo8(-(bankStates))
 2913 17cc F040      		sbci r31,hi8(-(bankStates))
 2914 17ce 2389      		ldd r18,Z+19
 2915 17d0 3489      		ldd r19,Z+20
 2916 17d2 4589      		ldd r20,Z+21
 2917 17d4 5689      		ldd r21,Z+22
 2918 17d6 872F      		mov r24,r23
 2919 17d8 90E0      		ldi r25,lo8(0)
 2920 17da FC01      		movw r30,r24
 2921 17dc 6894      		set
 2922 17de 14F8      		bld __zero_reg__,5-1
 2923 17e0 EE0F      	1:	lsl r30
 2924 17e2 FF1F      		rol r31
 2925 17e4 1694      		lsr __zero_reg__
 2926 17e6 01F4      		brne 1b
 2927 17e8 880F      		lsl r24
 2928 17ea 991F      		rol r25
 2929 17ec E80F      		add r30,r24
 2930 17ee F91F      		adc r31,r25
 2931 17f0 E050      		subi r30,lo8(-(bankStates))
 2932 17f2 F040      		sbci r31,hi8(-(bankStates))
 2933 17f4 268F      		std Z+30,r18
 2934 17f6 378F      		std Z+31,r19
 2935 17f8 40A3      		std Z+32,r20
 2936 17fa 51A3      		std Z+33,r21
 2937               	.LM362:
 2938 17fc 872F      		mov r24,r23
 2939 17fe 90E0      		ldi r25,lo8(0)
 2940 1800 FC01      		movw r30,r24
 2941 1802 55E0      		ldi r21,5
 2942 1804 EE0F      	1:	lsl r30
 2943 1806 FF1F      		rol r31
 2944 1808 5A95      		dec r21
 2945 180a 01F4      		brne 1b
 2946 180c 880F      		lsl r24
 2947 180e 991F      		rol r25
 2948 1810 E80F      		add r30,r24
 2949 1812 F91F      		adc r31,r25
 2950 1814 E050      		subi r30,lo8(-(bankStates))
 2951 1816 F040      		sbci r31,hi8(-(bankStates))
 2952 1818 1482      		std Z+4,__zero_reg__
 2953 181a 00C0      		rjmp .L162
 2954               	.L161:
 2955               	.LM363:
 2956 181c 872F      		mov r24,r23
 2957 181e 90E0      		ldi r25,lo8(0)
 2958 1820 FC01      		movw r30,r24
 2959 1822 35E0      		ldi r19,5
 2960 1824 EE0F      	1:	lsl r30
 2961 1826 FF1F      		rol r31
 2962 1828 3A95      		dec r19
 2963 182a 01F4      		brne 1b
 2964 182c 880F      		lsl r24
 2965 182e 991F      		rol r25
 2966 1830 E80F      		add r30,r24
 2967 1832 F91F      		adc r31,r25
 2968 1834 E050      		subi r30,lo8(-(bankStates))
 2969 1836 F040      		sbci r31,hi8(-(bankStates))
 2970 1838 2789      		ldd r18,Z+23
 2971 183a 308D      		ldd r19,Z+24
 2972 183c 418D      		ldd r20,Z+25
 2973 183e 528D      		ldd r21,Z+26
 2974 1840 872F      		mov r24,r23
 2975 1842 90E0      		ldi r25,lo8(0)
 2976 1844 FC01      		movw r30,r24
 2977 1846 6894      		set
 2978 1848 14F8      		bld __zero_reg__,5-1
 2979 184a EE0F      	1:	lsl r30
 2980 184c FF1F      		rol r31
 2981 184e 1694      		lsr __zero_reg__
 2982 1850 01F4      		brne 1b
 2983 1852 880F      		lsl r24
 2984 1854 991F      		rol r25
 2985 1856 E80F      		add r30,r24
 2986 1858 F91F      		adc r31,r25
 2987 185a E050      		subi r30,lo8(-(bankStates))
 2988 185c F040      		sbci r31,hi8(-(bankStates))
 2989 185e 268F      		std Z+30,r18
 2990 1860 378F      		std Z+31,r19
 2991 1862 40A3      		std Z+32,r20
 2992 1864 51A3      		std Z+33,r21
 2993               	.LM364:
 2994 1866 872F      		mov r24,r23
 2995 1868 90E0      		ldi r25,lo8(0)
 2996 186a FC01      		movw r30,r24
 2997 186c 35E0      		ldi r19,5
 2998 186e EE0F      	1:	lsl r30
 2999 1870 FF1F      		rol r31
 3000 1872 3A95      		dec r19
 3001 1874 01F4      		brne 1b
 3002 1876 880F      		lsl r24
 3003 1878 991F      		rol r25
 3004 187a E80F      		add r30,r24
 3005 187c F91F      		adc r31,r25
 3006 187e E050      		subi r30,lo8(-(bankStates))
 3007 1880 F040      		sbci r31,hi8(-(bankStates))
 3008 1882 81E0      		ldi r24,lo8(1)
 3009 1884 8483      		std Z+4,r24
 3010               	.L162:
 3011               	.LM365:
 3012 1886 872F      		mov r24,r23
 3013 1888 AD01      		movw r20,r26
 3014 188a 0E94 0000 		call SetSampleClock
 3015               	.LVL56:
 3016               	.LM366:
 3017 188e 1FBF      		out __SREG__,r17
 3018               	/* epilogue start */
 3019               	.LM367:
 3020 1890 1F91      		pop r17
 3021               	.LVL57:
 3022 1892 0895      		ret
 3023               	.LFE39:
 3026               	StartOverdub:
 3027               	.LFB41:
 3028               	.LM368:
 3029               	.LVL58:
 3030 1894 1F93      		push r17
 3031               	/* prologue: function */
 3032               	/* frame size = 0 */
 3033               	.LM369:
 3034 1896 1FB7      		in r17,__SREG__
 3035               	.LVL59:
 3036               	.LM370:
 3037               	/* #APP */
 3038               	 ;  2775 "WTPA.c" 1
 3039 1898 F894      		cli
 3040               	 ;  0 "" 2
 3041               	.LM371:
 3042               	/* #NOAPP */
 3043 189a 282F      		mov r18,r24
 3044 189c 30E0      		ldi r19,lo8(0)
 3045 189e F901      		movw r30,r18
 3046 18a0 A5E0      		ldi r26,5
 3047 18a2 EE0F      	1:	lsl r30
 3048 18a4 FF1F      		rol r31
 3049 18a6 AA95      		dec r26
 3050 18a8 01F4      		brne 1b
 3051 18aa 220F      		lsl r18
 3052 18ac 331F      		rol r19
 3053 18ae E20F      		add r30,r18
 3054 18b0 F31F      		adc r31,r19
 3055 18b2 E050      		subi r30,lo8(-(bankStates))
 3056 18b4 F040      		sbci r31,hi8(-(bankStates))
 3057 18b6 95E0      		ldi r25,lo8(5)
 3058 18b8 9083      		st Z,r25
 3059               	.LM372:
 3060 18ba 0E94 0000 		call SetSampleClock
 3061               	.LVL60:
 3062               	.LM373:
 3063 18be 1FBF      		out __SREG__,r17
 3064               	.LM374:
 3065 18c0 8091 7A00 		lds r24,122
 3066 18c4 86FD      		sbrc r24,6
 3067 18c6 00C0      		rjmp .L166
 3068               	.LM375:
 3069 18c8 8091 7900 		lds r24,121
 3070 18cc 8058      		subi r24,lo8(-(-128))
 3071 18ce 8093 0000 		sts adcByte,r24
 3072               	.LM376:
 3073 18d2 8091 7A00 		lds r24,122
 3074 18d6 8064      		ori r24,lo8(64)
 3075 18d8 8093 7A00 		sts 122,r24
 3076               	.L166:
 3077               	/* epilogue start */
 3078               	.LM377:
 3079 18dc 1F91      		pop r17
 3080               	.LVL61:
 3081 18de 0895      		ret
 3082               	.LFE41:
 3085               	StartRealtime:
 3086               	.LFB42:
 3087               	.LM378:
 3088               	.LVL62:
 3089 18e0 1F93      		push r17
 3090               	/* prologue: function */
 3091               	/* frame size = 0 */
 3092               	.LM379:
 3093 18e2 1FB7      		in r17,__SREG__
 3094               	.LVL63:
 3095               	.LM380:
 3096               	/* #APP */
 3097               	 ;  2795 "WTPA.c" 1
 3098 18e4 F894      		cli
 3099               	 ;  0 "" 2
 3100               	.LM381:
 3101               	/* #NOAPP */
 3102 18e6 282F      		mov r18,r24
 3103 18e8 30E0      		ldi r19,lo8(0)
 3104 18ea F901      		movw r30,r18
 3105 18ec 95E0      		ldi r25,5
 3106 18ee EE0F      	1:	lsl r30
 3107 18f0 FF1F      		rol r31
 3108 18f2 9A95      		dec r25
 3109 18f4 01F4      		brne 1b
 3110 18f6 220F      		lsl r18
 3111 18f8 331F      		rol r19
 3112 18fa E20F      		add r30,r18
 3113 18fc F31F      		adc r31,r19
 3114 18fe E050      		subi r30,lo8(-(bankStates))
 3115 1900 F040      		sbci r31,hi8(-(bankStates))
 3116 1902 92E0      		ldi r25,lo8(2)
 3117 1904 9083      		st Z,r25
 3118               	.LM382:
 3119 1906 0E94 0000 		call SetSampleClock
 3120               	.LVL64:
 3121               	.LM383:
 3122 190a 1FBF      		out __SREG__,r17
 3123               	.LM384:
 3124 190c 8091 7A00 		lds r24,122
 3125 1910 86FD      		sbrc r24,6
 3126 1912 00C0      		rjmp .L169
 3127               	.LM385:
 3128 1914 8091 7900 		lds r24,121
 3129 1918 8058      		subi r24,lo8(-(-128))
 3130 191a 8093 0000 		sts adcByte,r24
 3131               	.LM386:
 3132 191e 8091 7A00 		lds r24,122
 3133 1922 8064      		ori r24,lo8(64)
 3134 1924 8093 7A00 		sts 122,r24
 3135               	.L169:
 3136               	/* epilogue start */
 3137               	.LM387:
 3138 1928 1F91      		pop r17
 3139               	.LVL65:
 3140 192a 0895      		ret
 3141               	.LFE42:
 3144               	GetPlaybackRateFromNote:
 3145               	.LFB44:
 3146               	.LM388:
 3147               	.LVL66:
 3148               	/* prologue: function */
 3149               	/* frame size = 0 */
 3150 192c 282F      		mov r18,r24
 3151               	.LM389:
 3152 192e 6CE0      		ldi r22,lo8(12)
 3153 1930 0E94 0000 		call __udivmodqi4
 3154               	.LVL67:
 3155 1934 E92F      		mov r30,r25
 3156 1936 F0E0      		ldi r31,lo8(0)
 3157 1938 EE0F      		lsl r30
 3158 193a FF1F      		rol r31
 3159 193c E050      		subi r30,lo8(-(OctaveZeroCompareMatches))
 3160 193e F040      		sbci r31,hi8(-(OctaveZeroCompareMatches))
 3161 1940 822F      		mov r24,r18
 3162 1942 0E94 0000 		call __udivmodqi4
 3163 1946 2081      		ld r18,Z
 3164 1948 3181      		ldd r19,Z+1
 3165               	.LVL68:
 3166 194a 00C0      		rjmp 2f
 3167 194c 3695      	1:	lsr r19
 3168 194e 2795      		ror r18
 3169 1950 8A95      	2:	dec r24
 3170 1952 02F4      		brpl 1b
 3171               	.LM390:
 3172 1954 C901      		movw r24,r18
 3173               	/* epilogue start */
 3174 1956 0895      		ret
 3175               	.LFE44:
 3178               	MakeNewGranularArray:
 3179               	.LFB53:
 3180               	.LM391:
 3181               	.LVL69:
 3182 1958 2F92      		push r2
 3183 195a 3F92      		push r3
 3184 195c 4F92      		push r4
 3185 195e 5F92      		push r5
 3186 1960 6F92      		push r6
 3187 1962 7F92      		push r7
 3188 1964 8F92      		push r8
 3189 1966 9F92      		push r9
 3190 1968 AF92      		push r10
 3191 196a BF92      		push r11
 3192 196c CF92      		push r12
 3193 196e DF92      		push r13
 3194 1970 EF92      		push r14
 3195 1972 FF92      		push r15
 3196 1974 0F93      		push r16
 3197 1976 1F93      		push r17
 3198 1978 DF93      		push r29
 3199 197a CF93      		push r28
 3200 197c 00D0      		rcall .
 3201 197e 0F92      		push __tmp_reg__
 3202 1980 CDB7      		in r28,__SP_L__
 3203 1982 DEB7      		in r29,__SP_H__
 3204               	/* prologue: function */
 3205               	/* frame size = 3 */
 3206 1984 282E      		mov r2,r24
 3207               	.LM392:
 3208 1986 6230      		cpi r22,lo8(2)
 3209 1988 00F4      		brsh .+2
 3210 198a 00C0      		rjmp .L173
 3211               	.LVL70:
 3212               	.LM393:
 3213 198c 8FB7      		in r24,__SREG__
 3214 198e 8983      		std Y+1,r24
 3215               	.LVL71:
 3216               	.LM394:
 3217               	/* #APP */
 3218               	 ;  3189 "WTPA.c" 1
 3219 1990 F894      		cli
 3220               	 ;  0 "" 2
 3221               	/* #NOAPP */
 3222 1992 662E      		mov r6,r22
 3223 1994 90E8      		ldi r25,lo8(-128)
 3224 1996 9617      		cp r25,r22
 3225 1998 00F4      		brsh .L174
 3226 199a 20E8      		ldi r18,lo8(-128)
 3227 199c 622E      		mov r6,r18
 3228               	.LVL72:
 3229               	.L174:
 3230               	.LM395:
 3231 199e 822C      		mov r8,r2
 3232 19a0 9924      		clr r9
 3233 19a2 D401      		movw r26,r8
 3234 19a4 B695      		lsr r27
 3235 19a6 BA2F      		mov r27,r26
 3236 19a8 AA27      		clr r26
 3237 19aa B795      		ror r27
 3238 19ac A795      		ror r26
 3239 19ae A050      		subi r26,lo8(-(granularPositionArray))
 3240 19b0 B040      		sbci r27,hi8(-(granularPositionArray))
 3241 19b2 BB83      		std Y+3,r27
 3242 19b4 AA83      		std Y+2,r26
 3243 19b6 FD01      		movw r30,r26
 3244 19b8 80E0      		ldi r24,lo8(0)
 3245               	.LVL73:
 3246               	.L175:
 3247               	.LM396:
 3248 19ba 8193      		st Z+,r24
 3249               	.LM397:
 3250 19bc 8F5F      		subi r24,lo8(-(1))
 3251 19be 8615      		cp r24,r6
 3252 19c0 00F0      		brlo .L175
 3253 19c2 E090 0000 		lds r14,random31
 3254 19c6 F090 0000 		lds r15,(random31)+1
 3255 19ca 0091 0000 		lds r16,(random31)+2
 3256 19ce 1091 0000 		lds r17,(random31)+3
 3257 19d2 7724      		clr r7
 3258               	.LVL74:
 3259               	.LM398:
 3260 19d4 A62C      		mov r10,r6
 3261 19d6 BB24      		clr r11
 3262 19d8 CC24      		clr r12
 3263 19da DD24      		clr r13
 3264               	.LM399:
 3265 19dc 2401      		movw r4,r8
 3266 19de 5694      		lsr r5
 3267 19e0 542C      		mov r5,r4
 3268 19e2 4424      		clr r4
 3269 19e4 5794      		ror r5
 3270 19e6 4794      		ror r4
 3271               	.LVL75:
 3272               	.L177:
 3273               	.LM400:
 3274 19e8 EA81      		ldd r30,Y+2
 3275 19ea FB81      		ldd r31,Y+3
 3276 19ec 3080      		ld r3,Z
 3277               	.LBB110:
 3278               	.LBB111:
 3279               	.LM401:
 3280 19ee EE0C      		lsl r14
 3281 19f0 FF1C      		rol r15
 3282 19f2 001F      		rol r16
 3283 19f4 111F      		rol r17
 3284               	.LM402:
 3285 19f6 17FF      		sbrs r17,7
 3286 19f8 00C0      		rjmp .L176
 3287               	.LM403:
 3288 19fa 85EB      		ldi r24,lo8(548050357)
 3289 19fc 95E9      		ldi r25,hi8(548050357)
 3290 19fe AAEA      		ldi r26,hlo8(548050357)
 3291 1a00 B0E2      		ldi r27,hhi8(548050357)
 3292 1a02 E826      		eor r14,r24
 3293 1a04 F926      		eor r15,r25
 3294 1a06 0A27      		eor r16,r26
 3295 1a08 1B27      		eor r17,r27
 3296               	.L176:
 3297               	.LBE111:
 3298               	.LBE110:
 3299               	.LM404:
 3300 1a0a C801      		movw r24,r16
 3301 1a0c B701      		movw r22,r14
 3302 1a0e A601      		movw r20,r12
 3303 1a10 9501      		movw r18,r10
 3304 1a12 0E94 0000 		call __udivmodsi4
 3305               	.LM405:
 3306 1a16 F201      		movw r30,r4
 3307 1a18 E60F      		add r30,r22
 3308 1a1a F11D      		adc r31,__zero_reg__
 3309 1a1c E050      		subi r30,lo8(-(granularPositionArray))
 3310 1a1e F040      		sbci r31,hi8(-(granularPositionArray))
 3311 1a20 8081      		ld r24,Z
 3312 1a22 AA81      		ldd r26,Y+2
 3313 1a24 BB81      		ldd r27,Y+3
 3314 1a26 8D93      		st X+,r24
 3315 1a28 BB83      		std Y+3,r27
 3316 1a2a AA83      		std Y+2,r26
 3317               	.LM406:
 3318 1a2c 3082      		st Z,r3
 3319               	.LM407:
 3320 1a2e 7394      		inc r7
 3321 1a30 7614      		cp r7,r6
 3322 1a32 00F0      		brlo .L177
 3323 1a34 E092 0000 		sts random31,r14
 3324 1a38 F092 0000 		sts (random31)+1,r15
 3325 1a3c 0093 0000 		sts (random31)+2,r16
 3326 1a40 1093 0000 		sts (random31)+3,r17
 3327               	.LM408:
 3328 1a44 2220      		tst r2
 3329 1a46 01F4      		brne .L178
 3330               	.LM409:
 3331 1a48 6091 0000 		lds r22,bankStates+11
 3332 1a4c 7091 0000 		lds r23,(bankStates+11)+1
 3333 1a50 8091 0000 		lds r24,(bankStates+11)+2
 3334 1a54 9091 0000 		lds r25,(bankStates+11)+3
 3335 1a58 A601      		movw r20,r12
 3336 1a5a 9501      		movw r18,r10
 3337 1a5c 0E94 0000 		call __udivmodsi4
 3338 1a60 C901      		movw r24,r18
 3339 1a62 DA01      		movw r26,r20
 3340 1a64 8093 0000 		sts sliceSize,r24
 3341 1a68 9093 0000 		sts (sliceSize)+1,r25
 3342 1a6c A093 0000 		sts (sliceSize)+2,r26
 3343 1a70 B093 0000 		sts (sliceSize)+3,r27
 3344 1a74 00C0      		rjmp .L179
 3345               	.L178:
 3346               	.LM410:
 3347 1a76 2091 0000 		lds r18,bankStates+45
 3348 1a7a 3091 0000 		lds r19,(bankStates+45)+1
 3349 1a7e 4091 0000 		lds r20,(bankStates+45)+2
 3350 1a82 5091 0000 		lds r21,(bankStates+45)+3
 3351 1a86 6FEF      		ldi r22,lo8(524287)
 3352 1a88 7FEF      		ldi r23,hi8(524287)
 3353 1a8a 87E0      		ldi r24,hlo8(524287)
 3354 1a8c 90E0      		ldi r25,hhi8(524287)
 3355 1a8e 621B      		sub r22,r18
 3356 1a90 730B      		sbc r23,r19
 3357 1a92 840B      		sbc r24,r20
 3358 1a94 950B      		sbc r25,r21
 3359 1a96 A601      		movw r20,r12
 3360 1a98 9501      		movw r18,r10
 3361 1a9a 0E94 0000 		call __udivmodsi4
 3362 1a9e C901      		movw r24,r18
 3363 1aa0 DA01      		movw r26,r20
 3364 1aa2 8093 0000 		sts sliceSize+4,r24
 3365 1aa6 9093 0000 		sts (sliceSize+4)+1,r25
 3366 1aaa A093 0000 		sts (sliceSize+4)+2,r26
 3367 1aae B093 0000 		sts (sliceSize+4)+3,r27
 3368               	.L179:
 3369               	.LM411:
 3370 1ab2 F401      		movw r30,r8
 3371 1ab4 EE0F      		lsl r30
 3372 1ab6 FF1F      		rol r31
 3373 1ab8 C401      		movw r24,r8
 3374 1aba 75E0      		ldi r23,5
 3375 1abc 880F      	1:	lsl r24
 3376 1abe 991F      		rol r25
 3377 1ac0 7A95      		dec r23
 3378 1ac2 01F4      		brne 1b
 3379 1ac4 E80F      		add r30,r24
 3380 1ac6 F91F      		adc r31,r25
 3381 1ac8 E050      		subi r30,lo8(-(bankStates))
 3382 1aca F040      		sbci r31,hi8(-(bankStates))
 3383 1acc 6582      		std Z+5,r6
 3384               	.LM412:
 3385 1ace F401      		movw r30,r8
 3386 1ad0 E050      		subi r30,lo8(-(granularPositionArrayPointer))
 3387 1ad2 F040      		sbci r31,hi8(-(granularPositionArrayPointer))
 3388 1ad4 1082      		st Z,__zero_reg__
 3389               	.LM413:
 3390 1ad6 F401      		movw r30,r8
 3391 1ad8 EE0F      		lsl r30
 3392 1ada FF1F      		rol r31
 3393 1adc EE0F      		lsl r30
 3394 1ade FF1F      		rol r31
 3395 1ae0 DF01      		movw r26,r30
 3396 1ae2 A050      		subi r26,lo8(-(sliceSize))
 3397 1ae4 B040      		sbci r27,hi8(-(sliceSize))
 3398 1ae6 8D91      		ld r24,X+
 3399 1ae8 9D91      		ld r25,X+
 3400 1aea 0D90      		ld __tmp_reg__,X+
 3401 1aec BC91      		ld r27,X
 3402 1aee A02D      		mov r26,__tmp_reg__
 3403 1af0 E050      		subi r30,lo8(-(sliceRemaining))
 3404 1af2 F040      		sbci r31,hi8(-(sliceRemaining))
 3405 1af4 8083      		st Z,r24
 3406 1af6 9183      		std Z+1,r25
 3407 1af8 A283      		std Z+2,r26
 3408 1afa B383      		std Z+3,r27
 3409               	.LM414:
 3410 1afc 2220      		tst r2
 3411 1afe 01F4      		brne .L180
 3412               	.LM415:
 3413 1b00 2091 0000 		lds r18,sliceSize
 3414 1b04 3091 0000 		lds r19,(sliceSize)+1
 3415 1b08 4091 0000 		lds r20,(sliceSize)+2
 3416 1b0c 5091 0000 		lds r21,(sliceSize)+3
 3417 1b10 6091 0000 		lds r22,granularPositionArray
 3418 1b14 70E0      		ldi r23,lo8(0)
 3419 1b16 80E0      		ldi r24,lo8(0)
 3420 1b18 90E0      		ldi r25,hi8(0)
 3421 1b1a 0E94 0000 		call __mulsi3
 3422 1b1e 6093 0000 		sts bankStates+30,r22
 3423 1b22 7093 0000 		sts (bankStates+30)+1,r23
 3424 1b26 8093 0000 		sts (bankStates+30)+2,r24
 3425 1b2a 9093 0000 		sts (bankStates+30)+3,r25
 3426 1b2e 00C0      		rjmp .L181
 3427               	.L180:
 3428               	.LM416:
 3429 1b30 2091 0000 		lds r18,sliceSize+4
 3430 1b34 3091 0000 		lds r19,(sliceSize+4)+1
 3431 1b38 4091 0000 		lds r20,(sliceSize+4)+2
 3432 1b3c 5091 0000 		lds r21,(sliceSize+4)+3
 3433 1b40 6091 0000 		lds r22,granularPositionArray+128
 3434 1b44 70E0      		ldi r23,lo8(0)
 3435 1b46 80E0      		ldi r24,lo8(0)
 3436 1b48 90E0      		ldi r25,hi8(0)
 3437 1b4a 0E94 0000 		call __mulsi3
 3438 1b4e 2FEF      		ldi r18,lo8(524287)
 3439 1b50 3FEF      		ldi r19,hi8(524287)
 3440 1b52 47E0      		ldi r20,hlo8(524287)
 3441 1b54 50E0      		ldi r21,hhi8(524287)
 3442 1b56 261B      		sub r18,r22
 3443 1b58 370B      		sbc r19,r23
 3444 1b5a 480B      		sbc r20,r24
 3445 1b5c 590B      		sbc r21,r25
 3446 1b5e 2093 0000 		sts bankStates+64,r18
 3447 1b62 3093 0000 		sts (bankStates+64)+1,r19
 3448 1b66 4093 0000 		sts (bankStates+64)+2,r20
 3449 1b6a 5093 0000 		sts (bankStates+64)+3,r21
 3450               	.L181:
 3451               	.LM417:
 3452 1b6e B981      		ldd r27,Y+1
 3453 1b70 BFBF      		out __SREG__,r27
 3454 1b72 00C0      		rjmp .L183
 3455               	.LVL76:
 3456               	.L173:
 3457               	.LM418:
 3458 1b74 90E0      		ldi r25,lo8(0)
 3459 1b76 FC01      		movw r30,r24
 3460 1b78 55E0      		ldi r21,5
 3461 1b7a EE0F      	1:	lsl r30
 3462 1b7c FF1F      		rol r31
 3463 1b7e 5A95      		dec r21
 3464 1b80 01F4      		brne 1b
 3465 1b82 880F      		lsl r24
 3466 1b84 991F      		rol r25
 3467 1b86 E80F      		add r30,r24
 3468 1b88 F91F      		adc r31,r25
 3469 1b8a E050      		subi r30,lo8(-(bankStates))
 3470 1b8c F040      		sbci r31,hi8(-(bankStates))
 3471 1b8e 1582      		std Z+5,__zero_reg__
 3472               	.LVL77:
 3473               	.L183:
 3474               	/* epilogue start */
 3475               	.LM419:
 3476 1b90 0F90      		pop __tmp_reg__
 3477 1b92 0F90      		pop __tmp_reg__
 3478 1b94 0F90      		pop __tmp_reg__
 3479 1b96 CF91      		pop r28
 3480 1b98 DF91      		pop r29
 3481 1b9a 1F91      		pop r17
 3482 1b9c 0F91      		pop r16
 3483 1b9e FF90      		pop r15
 3484 1ba0 EF90      		pop r14
 3485 1ba2 DF90      		pop r13
 3486 1ba4 CF90      		pop r12
 3487 1ba6 BF90      		pop r11
 3488 1ba8 AF90      		pop r10
 3489 1baa 9F90      		pop r9
 3490 1bac 8F90      		pop r8
 3491 1bae 7F90      		pop r7
 3492               	.LVL78:
 3493 1bb0 6F90      		pop r6
 3494 1bb2 5F90      		pop r5
 3495 1bb4 4F90      		pop r4
 3496 1bb6 3F90      		pop r3
 3497               	.LVL79:
 3498 1bb8 2F90      		pop r2
 3499               	.LVL80:
 3500 1bba 0895      		ret
 3501               	.LFE53:
 3504               	UpdateAdjustedSampleAddresses:
 3505               	.LFB54:
 3506               	.LM420:
 3507               	.LVL81:
 3508 1bbc 2F92      		push r2
 3509 1bbe 3F92      		push r3
 3510 1bc0 4F92      		push r4
 3511 1bc2 5F92      		push r5
 3512 1bc4 6F92      		push r6
 3513 1bc6 7F92      		push r7
 3514 1bc8 8F92      		push r8
 3515 1bca 9F92      		push r9
 3516 1bcc AF92      		push r10
 3517 1bce BF92      		push r11
 3518 1bd0 CF92      		push r12
 3519 1bd2 DF92      		push r13
 3520 1bd4 EF92      		push r14
 3521 1bd6 FF92      		push r15
 3522 1bd8 0F93      		push r16
 3523 1bda 1F93      		push r17
 3524 1bdc DF93      		push r29
 3525 1bde CF93      		push r28
 3526 1be0 0F92      		push __tmp_reg__
 3527 1be2 CDB7      		in r28,__SP_L__
 3528 1be4 DEB7      		in r29,__SP_H__
 3529               	/* prologue: function */
 3530               	/* frame size = 1 */
 3531               	.LM421:
 3532 1be6 9FB7      		in r25,__SREG__
 3533 1be8 9983      		std Y+1,r25
 3534               	.LVL82:
 3535               	.LM422:
 3536               	/* #APP */
 3537               	 ;  3277 "WTPA.c" 1
 3538 1bea F894      		cli
 3539               	 ;  0 "" 2
 3540               	.LM423:
 3541               	/* #NOAPP */
 3542 1bec 8823      		tst r24
 3543 1bee 01F0      		breq .+2
 3544 1bf0 00C0      		rjmp .L187
 3545               	.LM424:
 3546 1bf2 A090 0000 		lds r10,bankStates+11
 3547 1bf6 B090 0000 		lds r11,(bankStates+11)+1
 3548 1bfa C090 0000 		lds r12,(bankStates+11)+2
 3549 1bfe D090 0000 		lds r13,(bankStates+11)+3
 3550 1c02 03E0      		ldi r16,3
 3551 1c04 AA0C      	1:	lsl r10
 3552 1c06 BB1C      		rol r11
 3553 1c08 CC1C      		rol r12
 3554 1c0a DD1C      		rol r13
 3555 1c0c 0A95      		dec r16
 3556 1c0e 01F4      		brne 1b
 3557 1c10 AB2C      		mov r10,r11
 3558 1c12 BC2C      		mov r11,r12
 3559 1c14 CD2C      		mov r12,r13
 3560 1c16 DD24      		clr r13
 3561               	.LVL83:
 3562               	.LM425:
 3563 1c18 6091 0000 		lds r22,bankStates+27
 3564 1c1c 2091 0000 		lds r18,bankStates+29
 3565 1c20 70E0      		ldi r23,lo8(0)
 3566 1c22 620F      		add r22,r18
 3567 1c24 711D      		adc r23,__zero_reg__
 3568 1c26 80E0      		ldi r24,lo8(0)
 3569 1c28 90E0      		ldi r25,hi8(0)
 3570               	.LVL84:
 3571 1c2a A601      		movw r20,r12
 3572 1c2c 9501      		movw r18,r10
 3573 1c2e 0E94 0000 		call __mulsi3
 3574 1c32 B3E0      		ldi r27,3
 3575 1c34 9695      	1:	lsr r25
 3576 1c36 8795      		ror r24
 3577 1c38 7795      		ror r23
 3578 1c3a 6795      		ror r22
 3579 1c3c BA95      		dec r27
 3580 1c3e 01F4      		brne 1b
 3581 1c40 6093 0000 		sts bankStates+23,r22
 3582 1c44 7093 0000 		sts (bankStates+23)+1,r23
 3583 1c48 8093 0000 		sts (bankStates+23)+2,r24
 3584 1c4c 9093 0000 		sts (bankStates+23)+3,r25
 3585               	.LM426:
 3586 1c50 2090 0000 		lds r2,bankStates+11
 3587 1c54 3090 0000 		lds r3,(bankStates+11)+1
 3588 1c58 4090 0000 		lds r4,(bankStates+11)+2
 3589 1c5c 5090 0000 		lds r5,(bankStates+11)+3
 3590 1c60 6090 0000 		lds r6,bankStates+28
 3591 1c64 2091 0000 		lds r18,bankStates+29
 3592 1c68 30E0      		ldi r19,lo8(0)
 3593 1c6a 40E0      		ldi r20,lo8(0)
 3594 1c6c 50E0      		ldi r21,hi8(0)
 3595 1c6e C601      		movw r24,r12
 3596 1c70 B501      		movw r22,r10
 3597 1c72 0E94 0000 		call __mulsi3
 3598 1c76 7B01      		movw r14,r22
 3599 1c78 8C01      		movw r16,r24
 3600 1c7a A3E0      		ldi r26,3
 3601 1c7c 1695      	1:	lsr r17
 3602 1c7e 0795      		ror r16
 3603 1c80 F794      		ror r15
 3604 1c82 E794      		ror r14
 3605 1c84 AA95      		dec r26
 3606 1c86 01F4      		brne 1b
 3607 1c88 E20C      		add r14,r2
 3608 1c8a F31C      		adc r15,r3
 3609 1c8c 041D      		adc r16,r4
 3610 1c8e 151D      		adc r17,r5
 3611 1c90 7724      		clr r7
 3612 1c92 8824      		clr r8
 3613 1c94 9924      		clr r9
 3614 1c96 C601      		movw r24,r12
 3615 1c98 B501      		movw r22,r10
 3616 1c9a A401      		movw r20,r8
 3617 1c9c 9301      		movw r18,r6
 3618 1c9e 0E94 0000 		call __mulsi3
 3619 1ca2 F3E0      		ldi r31,3
 3620 1ca4 9695      	1:	lsr r25
 3621 1ca6 8795      		ror r24
 3622 1ca8 7795      		ror r23
 3623 1caa 6795      		ror r22
 3624 1cac FA95      		dec r31
 3625 1cae 01F4      		brne 1b
 3626 1cb0 E61A      		sub r14,r22
 3627 1cb2 F70A      		sbc r15,r23
 3628 1cb4 080B      		sbc r16,r24
 3629 1cb6 190B      		sbc r17,r25
 3630 1cb8 E092 0000 		sts bankStates+19,r14
 3631 1cbc F092 0000 		sts (bankStates+19)+1,r15
 3632 1cc0 0093 0000 		sts (bankStates+19)+2,r16
 3633 1cc4 1093 0000 		sts (bankStates+19)+3,r17
 3634               	.LM427:
 3635 1cc8 2091 0000 		lds r18,bankStates+23
 3636 1ccc 3091 0000 		lds r19,(bankStates+23)+1
 3637 1cd0 4091 0000 		lds r20,(bankStates+23)+2
 3638 1cd4 5091 0000 		lds r21,(bankStates+23)+3
 3639 1cd8 8091 0000 		lds r24,bankStates+19
 3640 1cdc 9091 0000 		lds r25,(bankStates+19)+1
 3641 1ce0 A091 0000 		lds r26,(bankStates+19)+2
 3642 1ce4 B091 0000 		lds r27,(bankStates+19)+3
 3643 1ce8 8217      		cp r24,r18
 3644 1cea 9307      		cpc r25,r19
 3645 1cec A407      		cpc r26,r20
 3646 1cee B507      		cpc r27,r21
 3647 1cf0 00F4      		brsh .L188
 3648               	.LM428:
 3649 1cf2 8091 0000 		lds r24,bankStates+3
 3650 1cf6 8130      		cpi r24,lo8(1)
 3651 1cf8 01F4      		brne .L189
 3652               	.LM429:
 3653 1cfa 8093 0000 		sts bankStates+4,r24
 3654 1cfe 00C0      		rjmp .L190
 3655               	.L189:
 3656               	.LM430:
 3657 1d00 1092 0000 		sts bankStates+4,__zero_reg__
 3658               	.L190:
 3659               	.LM431:
 3660 1d04 2091 0000 		lds r18,bankStates+23
 3661 1d08 3091 0000 		lds r19,(bankStates+23)+1
 3662 1d0c 4091 0000 		lds r20,(bankStates+23)+2
 3663 1d10 5091 0000 		lds r21,(bankStates+23)+3
 3664               	.LVL85:
 3665               	.LM432:
 3666 1d14 8091 0000 		lds r24,bankStates+19
 3667 1d18 9091 0000 		lds r25,(bankStates+19)+1
 3668 1d1c A091 0000 		lds r26,(bankStates+19)+2
 3669 1d20 B091 0000 		lds r27,(bankStates+19)+3
 3670 1d24 8093 0000 		sts bankStates+23,r24
 3671 1d28 9093 0000 		sts (bankStates+23)+1,r25
 3672 1d2c A093 0000 		sts (bankStates+23)+2,r26
 3673 1d30 B093 0000 		sts (bankStates+23)+3,r27
 3674               	.LM433:
 3675 1d34 2093 0000 		sts bankStates+19,r18
 3676 1d38 3093 0000 		sts (bankStates+19)+1,r19
 3677 1d3c 4093 0000 		sts (bankStates+19)+2,r20
 3678 1d40 5093 0000 		sts (bankStates+19)+3,r21
 3679 1d44 00C0      		rjmp .L191
 3680               	.LVL86:
 3681               	.L188:
 3682               	.LM434:
 3683 1d46 8091 0000 		lds r24,bankStates+3
 3684 1d4a 8130      		cpi r24,lo8(1)
 3685 1d4c 01F4      		brne .L192
 3686               	.LM435:
 3687 1d4e 1092 0000 		sts bankStates+4,__zero_reg__
 3688 1d52 00C0      		rjmp .L191
 3689               	.L192:
 3690               	.LM436:
 3691 1d54 81E0      		ldi r24,lo8(1)
 3692 1d56 8093 0000 		sts bankStates+4,r24
 3693               	.LVL87:
 3694               	.L191:
 3695               	.LM437:
 3696 1d5a 2091 0000 		lds r18,bankStates+23
 3697 1d5e 3091 0000 		lds r19,(bankStates+23)+1
 3698 1d62 4091 0000 		lds r20,(bankStates+23)+2
 3699 1d66 5091 0000 		lds r21,(bankStates+23)+3
 3700 1d6a 8091 0000 		lds r24,bankStates+11
 3701 1d6e 9091 0000 		lds r25,(bankStates+11)+1
 3702 1d72 A091 0000 		lds r26,(bankStates+11)+2
 3703 1d76 B091 0000 		lds r27,(bankStates+11)+3
 3704 1d7a 8217      		cp r24,r18
 3705 1d7c 9307      		cpc r25,r19
 3706 1d7e A407      		cpc r26,r20
 3707 1d80 B507      		cpc r27,r21
 3708 1d82 00F4      		brsh .L193
 3709               	.LM438:
 3710 1d84 8091 0000 		lds r24,bankStates+23
 3711 1d88 9091 0000 		lds r25,(bankStates+23)+1
 3712 1d8c A091 0000 		lds r26,(bankStates+23)+2
 3713 1d90 B091 0000 		lds r27,(bankStates+23)+3
 3714 1d94 2091 0000 		lds r18,bankStates+11
 3715 1d98 3091 0000 		lds r19,(bankStates+11)+1
 3716 1d9c 4091 0000 		lds r20,(bankStates+11)+2
 3717 1da0 5091 0000 		lds r21,(bankStates+11)+3
 3718 1da4 821B      		sub r24,r18
 3719 1da6 930B      		sbc r25,r19
 3720 1da8 A40B      		sbc r26,r20
 3721 1daa B50B      		sbc r27,r21
 3722 1dac 8093 0000 		sts bankStates+23,r24
 3723 1db0 9093 0000 		sts (bankStates+23)+1,r25
 3724 1db4 A093 0000 		sts (bankStates+23)+2,r26
 3725 1db8 B093 0000 		sts (bankStates+23)+3,r27
 3726               	.L193:
 3727               	.LM439:
 3728 1dbc 2091 0000 		lds r18,bankStates+19
 3729 1dc0 3091 0000 		lds r19,(bankStates+19)+1
 3730 1dc4 4091 0000 		lds r20,(bankStates+19)+2
 3731 1dc8 5091 0000 		lds r21,(bankStates+19)+3
 3732 1dcc 8091 0000 		lds r24,bankStates+11
 3733 1dd0 9091 0000 		lds r25,(bankStates+11)+1
 3734 1dd4 A091 0000 		lds r26,(bankStates+11)+2
 3735 1dd8 B091 0000 		lds r27,(bankStates+11)+3
 3736 1ddc 8217      		cp r24,r18
 3737 1dde 9307      		cpc r25,r19
 3738 1de0 A407      		cpc r26,r20
 3739 1de2 B507      		cpc r27,r21
 3740 1de4 00F0      		brlo .+2
 3741 1de6 00C0      		rjmp .L194
 3742               	.LM440:
 3743 1de8 8091 0000 		lds r24,bankStates+19
 3744 1dec 9091 0000 		lds r25,(bankStates+19)+1
 3745 1df0 A091 0000 		lds r26,(bankStates+19)+2
 3746 1df4 B091 0000 		lds r27,(bankStates+19)+3
 3747 1df8 2091 0000 		lds r18,bankStates+11
 3748 1dfc 3091 0000 		lds r19,(bankStates+11)+1
 3749 1e00 4091 0000 		lds r20,(bankStates+11)+2
 3750 1e04 5091 0000 		lds r21,(bankStates+11)+3
 3751 1e08 821B      		sub r24,r18
 3752 1e0a 930B      		sbc r25,r19
 3753 1e0c A40B      		sbc r26,r20
 3754 1e0e B50B      		sbc r27,r21
 3755 1e10 8093 0000 		sts bankStates+19,r24
 3756 1e14 9093 0000 		sts (bankStates+19)+1,r25
 3757 1e18 A093 0000 		sts (bankStates+19)+2,r26
 3758 1e1c B093 0000 		sts (bankStates+19)+3,r27
 3759               	.LM441:
 3760 1e20 2091 0000 		lds r18,bankStates+19
 3761 1e24 3091 0000 		lds r19,(bankStates+19)+1
 3762 1e28 4091 0000 		lds r20,(bankStates+19)+2
 3763 1e2c 5091 0000 		lds r21,(bankStates+19)+3
 3764 1e30 8091 0000 		lds r24,bankStates+23
 3765 1e34 9091 0000 		lds r25,(bankStates+23)+1
 3766 1e38 A091 0000 		lds r26,(bankStates+23)+2
 3767 1e3c B091 0000 		lds r27,(bankStates+23)+3
 3768 1e40 2817      		cp r18,r24
 3769 1e42 3907      		cpc r19,r25
 3770 1e44 4A07      		cpc r20,r26
 3771 1e46 5B07      		cpc r21,r27
 3772 1e48 01F4      		brne .L194
 3773               	.LM442:
 3774 1e4a 8091 0000 		lds r24,bankStates+19
 3775 1e4e 9091 0000 		lds r25,(bankStates+19)+1
 3776 1e52 A091 0000 		lds r26,(bankStates+19)+2
 3777 1e56 B091 0000 		lds r27,(bankStates+19)+3
 3778 1e5a 0197      		sbiw r24,1
 3779 1e5c A109      		sbc r26,__zero_reg__
 3780 1e5e B109      		sbc r27,__zero_reg__
 3781 1e60 8093 0000 		sts bankStates+19,r24
 3782 1e64 9093 0000 		sts (bankStates+19)+1,r25
 3783 1e68 A093 0000 		sts (bankStates+19)+2,r26
 3784 1e6c B093 0000 		sts (bankStates+19)+3,r27
 3785               	.L194:
 3786               	.LM443:
 3787 1e70 2091 0000 		lds r18,bankStates+23
 3788 1e74 3091 0000 		lds r19,(bankStates+23)+1
 3789 1e78 4091 0000 		lds r20,(bankStates+23)+2
 3790 1e7c 5091 0000 		lds r21,(bankStates+23)+3
 3791 1e80 8091 0000 		lds r24,bankStates+19
 3792 1e84 9091 0000 		lds r25,(bankStates+19)+1
 3793 1e88 A091 0000 		lds r26,(bankStates+19)+2
 3794 1e8c B091 0000 		lds r27,(bankStates+19)+3
 3795 1e90 8217      		cp r24,r18
 3796 1e92 9307      		cpc r25,r19
 3797 1e94 A407      		cpc r26,r20
 3798 1e96 B507      		cpc r27,r21
 3799 1e98 00F0      		brlo .+2
 3800 1e9a 00C0      		rjmp .L195
 3801               	.LM444:
 3802 1e9c 2091 0000 		lds r18,bankStates+30
 3803 1ea0 3091 0000 		lds r19,(bankStates+30)+1
 3804 1ea4 4091 0000 		lds r20,(bankStates+30)+2
 3805 1ea8 5091 0000 		lds r21,(bankStates+30)+3
 3806 1eac 8091 0000 		lds r24,bankStates+23
 3807 1eb0 9091 0000 		lds r25,(bankStates+23)+1
 3808 1eb4 A091 0000 		lds r26,(bankStates+23)+2
 3809 1eb8 B091 0000 		lds r27,(bankStates+23)+3
 3810 1ebc 2817      		cp r18,r24
 3811 1ebe 3907      		cpc r19,r25
 3812 1ec0 4A07      		cpc r20,r26
 3813 1ec2 5B07      		cpc r21,r27
 3814 1ec4 00F0      		brlo .+2
 3815 1ec6 00C0      		rjmp .L196
 3816 1ec8 2091 0000 		lds r18,bankStates+30
 3817 1ecc 3091 0000 		lds r19,(bankStates+30)+1
 3818 1ed0 4091 0000 		lds r20,(bankStates+30)+2
 3819 1ed4 5091 0000 		lds r21,(bankStates+30)+3
 3820 1ed8 8091 0000 		lds r24,bankStates+19
 3821 1edc 9091 0000 		lds r25,(bankStates+19)+1
 3822 1ee0 A091 0000 		lds r26,(bankStates+19)+2
 3823 1ee4 B091 0000 		lds r27,(bankStates+19)+3
 3824 1ee8 8217      		cp r24,r18
 3825 1eea 9307      		cpc r25,r19
 3826 1eec A407      		cpc r26,r20
 3827 1eee B507      		cpc r27,r21
 3828 1ef0 00F0      		brlo .+2
 3829 1ef2 00C0      		rjmp .L196
 3830               	.LM445:
 3831 1ef4 2091 0000 		lds r18,bankStates+23
 3832 1ef8 3091 0000 		lds r19,(bankStates+23)+1
 3833 1efc 4091 0000 		lds r20,(bankStates+23)+2
 3834 1f00 5091 0000 		lds r21,(bankStates+23)+3
 3835 1f04 A090 0000 		lds r10,bankStates+30
 3836 1f08 B090 0000 		lds r11,(bankStates+30)+1
 3837 1f0c C090 0000 		lds r12,(bankStates+30)+2
 3838 1f10 D090 0000 		lds r13,(bankStates+30)+3
 3839               	.LVL88:
 3840 1f14 8091 0000 		lds r24,bankStates+30
 3841 1f18 9091 0000 		lds r25,(bankStates+30)+1
 3842 1f1c A091 0000 		lds r26,(bankStates+30)+2
 3843 1f20 B091 0000 		lds r27,(bankStates+30)+3
 3844 1f24 E090 0000 		lds r14,bankStates+19
 3845 1f28 F090 0000 		lds r15,(bankStates+19)+1
 3846 1f2c 0091 0000 		lds r16,(bankStates+19)+2
 3847 1f30 1091 0000 		lds r17,(bankStates+19)+3
 3848 1f34 2A19      		sub r18,r10
 3849 1f36 3B09      		sbc r19,r11
 3850 1f38 4C09      		sbc r20,r12
 3851 1f3a 5D09      		sbc r21,r13
 3852 1f3c 8E19      		sub r24,r14
 3853 1f3e 9F09      		sbc r25,r15
 3854 1f40 A00B      		sbc r26,r16
 3855 1f42 B10B      		sbc r27,r17
 3856 1f44 2817      		cp r18,r24
 3857 1f46 3907      		cpc r19,r25
 3858 1f48 4A07      		cpc r20,r26
 3859 1f4a 5B07      		cpc r21,r27
 3860 1f4c 00F0      		brlo .L210
 3861 1f4e 00C0      		rjmp .L213
 3862               	.LVL89:
 3863               	.L195:
 3864               	.LM446:
 3865 1f50 2091 0000 		lds r18,bankStates+30
 3866 1f54 3091 0000 		lds r19,(bankStates+30)+1
 3867 1f58 4091 0000 		lds r20,(bankStates+30)+2
 3868 1f5c 5091 0000 		lds r21,(bankStates+30)+3
 3869 1f60 8091 0000 		lds r24,bankStates+23
 3870 1f64 9091 0000 		lds r25,(bankStates+23)+1
 3871 1f68 A091 0000 		lds r26,(bankStates+23)+2
 3872 1f6c B091 0000 		lds r27,(bankStates+23)+3
 3873 1f70 2817      		cp r18,r24
 3874 1f72 3907      		cpc r19,r25
 3875 1f74 4A07      		cpc r20,r26
 3876 1f76 5B07      		cpc r21,r27
 3877 1f78 00F4      		brsh .L198
 3878               	.L213:
 3879               	.LM447:
 3880 1f7a 8091 0000 		lds r24,bankStates+23
 3881 1f7e 9091 0000 		lds r25,(bankStates+23)+1
 3882 1f82 A091 0000 		lds r26,(bankStates+23)+2
 3883 1f86 B091 0000 		lds r27,(bankStates+23)+3
 3884 1f8a 00C0      		rjmp .L212
 3885               	.L198:
 3886               	.LM448:
 3887 1f8c 2091 0000 		lds r18,bankStates+30
 3888 1f90 3091 0000 		lds r19,(bankStates+30)+1
 3889 1f94 4091 0000 		lds r20,(bankStates+30)+2
 3890 1f98 5091 0000 		lds r21,(bankStates+30)+3
 3891 1f9c 8091 0000 		lds r24,bankStates+19
 3892 1fa0 9091 0000 		lds r25,(bankStates+19)+1
 3893 1fa4 A091 0000 		lds r26,(bankStates+19)+2
 3894 1fa8 B091 0000 		lds r27,(bankStates+19)+3
 3895 1fac 8217      		cp r24,r18
 3896 1fae 9307      		cpc r25,r19
 3897 1fb0 A407      		cpc r26,r20
 3898 1fb2 B507      		cpc r27,r21
 3899 1fb4 00F0      		brlo .+2
 3900 1fb6 00C0      		rjmp .L196
 3901               	.L210:
 3902               	.LM449:
 3903 1fb8 8091 0000 		lds r24,bankStates+19
 3904 1fbc 9091 0000 		lds r25,(bankStates+19)+1
 3905 1fc0 A091 0000 		lds r26,(bankStates+19)+2
 3906 1fc4 B091 0000 		lds r27,(bankStates+19)+3
 3907               	.L212:
 3908 1fc8 8093 0000 		sts bankStates+30,r24
 3909 1fcc 9093 0000 		sts (bankStates+30)+1,r25
 3910 1fd0 A093 0000 		sts (bankStates+30)+2,r26
 3911 1fd4 B093 0000 		sts (bankStates+30)+3,r27
 3912 1fd8 00C0      		rjmp .L196
 3913               	.LVL90:
 3914               	.L187:
 3915               	.LM450:
 3916 1fda 8091 0000 		lds r24,bankStates+45
 3917 1fde 9091 0000 		lds r25,(bankStates+45)+1
 3918 1fe2 A091 0000 		lds r26,(bankStates+45)+2
 3919 1fe6 B091 0000 		lds r27,(bankStates+45)+3
 3920               	.LVL91:
 3921 1fea EFEF      		ldi r30,lo8(524287)
 3922 1fec EE2E      		mov r14,r30
 3923 1fee EFEF      		ldi r30,hi8(524287)
 3924 1ff0 FE2E      		mov r15,r30
 3925 1ff2 E7E0      		ldi r30,hlo8(524287)
 3926 1ff4 0E2F      		mov r16,r30
 3927 1ff6 112D      		mov r17,__zero_reg__
 3928 1ff8 5701      		movw r10,r14
 3929 1ffa 6801      		movw r12,r16
 3930 1ffc A81A      		sub r10,r24
 3931 1ffe B90A      		sbc r11,r25
 3932 2000 CA0A      		sbc r12,r26
 3933 2002 DB0A      		sbc r13,r27
 3934 2004 73E0      		ldi r23,3
 3935 2006 AA0C      	1:	lsl r10
 3936 2008 BB1C      		rol r11
 3937 200a CC1C      		rol r12
 3938 200c DD1C      		rol r13
 3939 200e 7A95      		dec r23
 3940 2010 01F4      		brne 1b
 3941 2012 AB2C      		mov r10,r11
 3942 2014 BC2C      		mov r11,r12
 3943 2016 CD2C      		mov r12,r13
 3944 2018 DD24      		clr r13
 3945               	.LVL92:
 3946               	.LM451:
 3947 201a 6091 0000 		lds r22,bankStates+61
 3948 201e 2091 0000 		lds r18,bankStates+63
 3949 2022 70E0      		ldi r23,lo8(0)
 3950 2024 620F      		add r22,r18
 3951 2026 711D      		adc r23,__zero_reg__
 3952 2028 80E0      		ldi r24,lo8(0)
 3953 202a 90E0      		ldi r25,hi8(0)
 3954 202c A601      		movw r20,r12
 3955 202e 9501      		movw r18,r10
 3956 2030 0E94 0000 		call __mulsi3
 3957 2034 53E0      		ldi r21,3
 3958 2036 9695      	1:	lsr r25
 3959 2038 8795      		ror r24
 3960 203a 7795      		ror r23
 3961 203c 6795      		ror r22
 3962 203e 5A95      		dec r21
 3963 2040 01F4      		brne 1b
 3964 2042 E61A      		sub r14,r22
 3965 2044 F70A      		sbc r15,r23
 3966 2046 080B      		sbc r16,r24
 3967 2048 190B      		sbc r17,r25
 3968 204a E092 0000 		sts bankStates+57,r14
 3969 204e F092 0000 		sts (bankStates+57)+1,r15
 3970 2052 0093 0000 		sts (bankStates+57)+2,r16
 3971 2056 1093 0000 		sts (bankStates+57)+3,r17
 3972               	.LM452:
 3973 205a 2090 0000 		lds r2,bankStates+45
 3974 205e 3090 0000 		lds r3,(bankStates+45)+1
 3975 2062 4090 0000 		lds r4,(bankStates+45)+2
 3976 2066 5090 0000 		lds r5,(bankStates+45)+3
 3977 206a 2091 0000 		lds r18,bankStates+62
 3978 206e 6090 0000 		lds r6,bankStates+63
 3979 2072 30E0      		ldi r19,lo8(0)
 3980 2074 40E0      		ldi r20,lo8(0)
 3981 2076 50E0      		ldi r21,hi8(0)
 3982 2078 C601      		movw r24,r12
 3983 207a B501      		movw r22,r10
 3984 207c 0E94 0000 		call __mulsi3
 3985 2080 7B01      		movw r14,r22
 3986 2082 8C01      		movw r16,r24
 3987 2084 43E0      		ldi r20,3
 3988 2086 1695      	1:	lsr r17
 3989 2088 0795      		ror r16
 3990 208a F794      		ror r15
 3991 208c E794      		ror r14
 3992 208e 4A95      		dec r20
 3993 2090 01F4      		brne 1b
 3994 2092 E20C      		add r14,r2
 3995 2094 F31C      		adc r15,r3
 3996 2096 041D      		adc r16,r4
 3997 2098 151D      		adc r17,r5
 3998 209a 7724      		clr r7
 3999 209c 8824      		clr r8
 4000 209e 9924      		clr r9
 4001 20a0 C601      		movw r24,r12
 4002 20a2 B501      		movw r22,r10
 4003 20a4 A401      		movw r20,r8
 4004 20a6 9301      		movw r18,r6
 4005 20a8 0E94 0000 		call __mulsi3
 4006 20ac 33E0      		ldi r19,3
 4007 20ae 9695      	1:	lsr r25
 4008 20b0 8795      		ror r24
 4009 20b2 7795      		ror r23
 4010 20b4 6795      		ror r22
 4011 20b6 3A95      		dec r19
 4012 20b8 01F4      		brne 1b
 4013 20ba E61A      		sub r14,r22
 4014 20bc F70A      		sbc r15,r23
 4015 20be 080B      		sbc r16,r24
 4016 20c0 190B      		sbc r17,r25
 4017 20c2 E092 0000 		sts bankStates+53,r14
 4018 20c6 F092 0000 		sts (bankStates+53)+1,r15
 4019 20ca 0093 0000 		sts (bankStates+53)+2,r16
 4020 20ce 1093 0000 		sts (bankStates+53)+3,r17
 4021               	.LM453:
 4022 20d2 2091 0000 		lds r18,bankStates+57
 4023 20d6 3091 0000 		lds r19,(bankStates+57)+1
 4024 20da 4091 0000 		lds r20,(bankStates+57)+2
 4025 20de 5091 0000 		lds r21,(bankStates+57)+3
 4026 20e2 8091 0000 		lds r24,bankStates+53
 4027 20e6 9091 0000 		lds r25,(bankStates+53)+1
 4028 20ea A091 0000 		lds r26,(bankStates+53)+2
 4029 20ee B091 0000 		lds r27,(bankStates+53)+3
 4030 20f2 2817      		cp r18,r24
 4031 20f4 3907      		cpc r19,r25
 4032 20f6 4A07      		cpc r20,r26
 4033 20f8 5B07      		cpc r21,r27
 4034 20fa 00F4      		brsh .L199
 4035               	.LM454:
 4036 20fc 8091 0000 		lds r24,bankStates+37
 4037 2100 8130      		cpi r24,lo8(1)
 4038 2102 01F4      		brne .L200
 4039               	.LM455:
 4040 2104 8093 0000 		sts bankStates+38,r24
 4041 2108 00C0      		rjmp .L201
 4042               	.L200:
 4043               	.LM456:
 4044 210a 1092 0000 		sts bankStates+38,__zero_reg__
 4045               	.L201:
 4046               	.LM457:
 4047 210e 2091 0000 		lds r18,bankStates+57
 4048 2112 3091 0000 		lds r19,(bankStates+57)+1
 4049 2116 4091 0000 		lds r20,(bankStates+57)+2
 4050 211a 5091 0000 		lds r21,(bankStates+57)+3
 4051               	.LVL93:
 4052               	.LM458:
 4053 211e 8091 0000 		lds r24,bankStates+53
 4054 2122 9091 0000 		lds r25,(bankStates+53)+1
 4055 2126 A091 0000 		lds r26,(bankStates+53)+2
 4056 212a B091 0000 		lds r27,(bankStates+53)+3
 4057 212e 8093 0000 		sts bankStates+57,r24
 4058 2132 9093 0000 		sts (bankStates+57)+1,r25
 4059 2136 A093 0000 		sts (bankStates+57)+2,r26
 4060 213a B093 0000 		sts (bankStates+57)+3,r27
 4061               	.LM459:
 4062 213e 2093 0000 		sts bankStates+53,r18
 4063 2142 3093 0000 		sts (bankStates+53)+1,r19
 4064 2146 4093 0000 		sts (bankStates+53)+2,r20
 4065 214a 5093 0000 		sts (bankStates+53)+3,r21
 4066 214e 00C0      		rjmp .L202
 4067               	.LVL94:
 4068               	.L199:
 4069               	.LM460:
 4070 2150 8091 0000 		lds r24,bankStates+37
 4071 2154 8130      		cpi r24,lo8(1)
 4072 2156 01F4      		brne .L203
 4073               	.LM461:
 4074 2158 1092 0000 		sts bankStates+38,__zero_reg__
 4075 215c 00C0      		rjmp .L202
 4076               	.L203:
 4077               	.LM462:
 4078 215e 81E0      		ldi r24,lo8(1)
 4079 2160 8093 0000 		sts bankStates+38,r24
 4080               	.LVL95:
 4081               	.L202:
 4082               	.LM463:
 4083 2164 2091 0000 		lds r18,bankStates+57
 4084 2168 3091 0000 		lds r19,(bankStates+57)+1
 4085 216c 4091 0000 		lds r20,(bankStates+57)+2
 4086 2170 5091 0000 		lds r21,(bankStates+57)+3
 4087 2174 8091 0000 		lds r24,bankStates+45
 4088 2178 9091 0000 		lds r25,(bankStates+45)+1
 4089 217c A091 0000 		lds r26,(bankStates+45)+2
 4090 2180 B091 0000 		lds r27,(bankStates+45)+3
 4091 2184 2817      		cp r18,r24
 4092 2186 3907      		cpc r19,r25
 4093 2188 4A07      		cpc r20,r26
 4094 218a 5B07      		cpc r21,r27
 4095 218c 00F4      		brsh .L204
 4096               	.LM464:
 4097 218e 8091 0000 		lds r24,bankStates+57
 4098 2192 9091 0000 		lds r25,(bankStates+57)+1
 4099 2196 A091 0000 		lds r26,(bankStates+57)+2
 4100 219a B091 0000 		lds r27,(bankStates+57)+3
 4101 219e 2091 0000 		lds r18,bankStates+45
 4102 21a2 3091 0000 		lds r19,(bankStates+45)+1
 4103 21a6 4091 0000 		lds r20,(bankStates+45)+2
 4104 21aa 5091 0000 		lds r21,(bankStates+45)+3
 4105 21ae 8150      		subi r24,lo8(-(524287))
 4106 21b0 9040      		sbci r25,hi8(-(524287))
 4107 21b2 A84F      		sbci r26,hlo8(-(524287))
 4108 21b4 BF4F      		sbci r27,hhi8(-(524287))
 4109 21b6 821B      		sub r24,r18
 4110 21b8 930B      		sbc r25,r19
 4111 21ba A40B      		sbc r26,r20
 4112 21bc B50B      		sbc r27,r21
 4113 21be 8093 0000 		sts bankStates+57,r24
 4114 21c2 9093 0000 		sts (bankStates+57)+1,r25
 4115 21c6 A093 0000 		sts (bankStates+57)+2,r26
 4116 21ca B093 0000 		sts (bankStates+57)+3,r27
 4117               	.L204:
 4118               	.LM465:
 4119 21ce 2091 0000 		lds r18,bankStates+53
 4120 21d2 3091 0000 		lds r19,(bankStates+53)+1
 4121 21d6 4091 0000 		lds r20,(bankStates+53)+2
 4122 21da 5091 0000 		lds r21,(bankStates+53)+3
 4123 21de 8091 0000 		lds r24,bankStates+45
 4124 21e2 9091 0000 		lds r25,(bankStates+45)+1
 4125 21e6 A091 0000 		lds r26,(bankStates+45)+2
 4126 21ea B091 0000 		lds r27,(bankStates+45)+3
 4127 21ee 2817      		cp r18,r24
 4128 21f0 3907      		cpc r19,r25
 4129 21f2 4A07      		cpc r20,r26
 4130 21f4 5B07      		cpc r21,r27
 4131 21f6 00F0      		brlo .+2
 4132 21f8 00C0      		rjmp .L205
 4133               	.LM466:
 4134 21fa 8091 0000 		lds r24,bankStates+53
 4135 21fe 9091 0000 		lds r25,(bankStates+53)+1
 4136 2202 A091 0000 		lds r26,(bankStates+53)+2
 4137 2206 B091 0000 		lds r27,(bankStates+53)+3
 4138 220a 2091 0000 		lds r18,bankStates+45
 4139 220e 3091 0000 		lds r19,(bankStates+45)+1
 4140 2212 4091 0000 		lds r20,(bankStates+45)+2
 4141 2216 5091 0000 		lds r21,(bankStates+45)+3
 4142 221a 8150      		subi r24,lo8(-(524287))
 4143 221c 9040      		sbci r25,hi8(-(524287))
 4144 221e A84F      		sbci r26,hlo8(-(524287))
 4145 2220 BF4F      		sbci r27,hhi8(-(524287))
 4146 2222 821B      		sub r24,r18
 4147 2224 930B      		sbc r25,r19
 4148 2226 A40B      		sbc r26,r20
 4149 2228 B50B      		sbc r27,r21
 4150 222a 8093 0000 		sts bankStates+53,r24
 4151 222e 9093 0000 		sts (bankStates+53)+1,r25
 4152 2232 A093 0000 		sts (bankStates+53)+2,r26
 4153 2236 B093 0000 		sts (bankStates+53)+3,r27
 4154               	.LM467:
 4155 223a 2091 0000 		lds r18,bankStates+53
 4156 223e 3091 0000 		lds r19,(bankStates+53)+1
 4157 2242 4091 0000 		lds r20,(bankStates+53)+2
 4158 2246 5091 0000 		lds r21,(bankStates+53)+3
 4159 224a 8091 0000 		lds r24,bankStates+57
 4160 224e 9091 0000 		lds r25,(bankStates+57)+1
 4161 2252 A091 0000 		lds r26,(bankStates+57)+2
 4162 2256 B091 0000 		lds r27,(bankStates+57)+3
 4163 225a 2817      		cp r18,r24
 4164 225c 3907      		cpc r19,r25
 4165 225e 4A07      		cpc r20,r26
 4166 2260 5B07      		cpc r21,r27
 4167 2262 01F4      		brne .L205
 4168               	.LM468:
 4169 2264 8091 0000 		lds r24,bankStates+53
 4170 2268 9091 0000 		lds r25,(bankStates+53)+1
 4171 226c A091 0000 		lds r26,(bankStates+53)+2
 4172 2270 B091 0000 		lds r27,(bankStates+53)+3
 4173 2274 0196      		adiw r24,1
 4174 2276 A11D      		adc r26,__zero_reg__
 4175 2278 B11D      		adc r27,__zero_reg__
 4176 227a 8093 0000 		sts bankStates+53,r24
 4177 227e 9093 0000 		sts (bankStates+53)+1,r25
 4178 2282 A093 0000 		sts (bankStates+53)+2,r26
 4179 2286 B093 0000 		sts (bankStates+53)+3,r27
 4180               	.L205:
 4181               	.LM469:
 4182 228a 2091 0000 		lds r18,bankStates+57
 4183 228e 3091 0000 		lds r19,(bankStates+57)+1
 4184 2292 4091 0000 		lds r20,(bankStates+57)+2
 4185 2296 5091 0000 		lds r21,(bankStates+57)+3
 4186 229a 8091 0000 		lds r24,bankStates+53
 4187 229e 9091 0000 		lds r25,(bankStates+53)+1
 4188 22a2 A091 0000 		lds r26,(bankStates+53)+2
 4189 22a6 B091 0000 		lds r27,(bankStates+53)+3
 4190 22aa 2817      		cp r18,r24
 4191 22ac 3907      		cpc r19,r25
 4192 22ae 4A07      		cpc r20,r26
 4193 22b0 5B07      		cpc r21,r27
 4194 22b2 00F0      		brlo .+2
 4195 22b4 00C0      		rjmp .L206
 4196               	.LM470:
 4197 22b6 2091 0000 		lds r18,bankStates+64
 4198 22ba 3091 0000 		lds r19,(bankStates+64)+1
 4199 22be 4091 0000 		lds r20,(bankStates+64)+2
 4200 22c2 5091 0000 		lds r21,(bankStates+64)+3
 4201 22c6 8091 0000 		lds r24,bankStates+57
 4202 22ca 9091 0000 		lds r25,(bankStates+57)+1
 4203 22ce A091 0000 		lds r26,(bankStates+57)+2
 4204 22d2 B091 0000 		lds r27,(bankStates+57)+3
 4205 22d6 8217      		cp r24,r18
 4206 22d8 9307      		cpc r25,r19
 4207 22da A407      		cpc r26,r20
 4208 22dc B507      		cpc r27,r21
 4209 22de 00F0      		brlo .+2
 4210 22e0 00C0      		rjmp .L196
 4211 22e2 2091 0000 		lds r18,bankStates+64
 4212 22e6 3091 0000 		lds r19,(bankStates+64)+1
 4213 22ea 4091 0000 		lds r20,(bankStates+64)+2
 4214 22ee 5091 0000 		lds r21,(bankStates+64)+3
 4215 22f2 8091 0000 		lds r24,bankStates+53
 4216 22f6 9091 0000 		lds r25,(bankStates+53)+1
 4217 22fa A091 0000 		lds r26,(bankStates+53)+2
 4218 22fe B091 0000 		lds r27,(bankStates+53)+3
 4219 2302 2817      		cp r18,r24
 4220 2304 3907      		cpc r19,r25
 4221 2306 4A07      		cpc r20,r26
 4222 2308 5B07      		cpc r21,r27
 4223 230a 00F0      		brlo .+2
 4224 230c 00C0      		rjmp .L196
 4225               	.LM471:
 4226 230e 2091 0000 		lds r18,bankStates+64
 4227 2312 3091 0000 		lds r19,(bankStates+64)+1
 4228 2316 4091 0000 		lds r20,(bankStates+64)+2
 4229 231a 5091 0000 		lds r21,(bankStates+64)+3
 4230 231e A090 0000 		lds r10,bankStates+57
 4231 2322 B090 0000 		lds r11,(bankStates+57)+1
 4232 2326 C090 0000 		lds r12,(bankStates+57)+2
 4233 232a D090 0000 		lds r13,(bankStates+57)+3
 4234               	.LVL96:
 4235 232e 8091 0000 		lds r24,bankStates+53
 4236 2332 9091 0000 		lds r25,(bankStates+53)+1
 4237 2336 A091 0000 		lds r26,(bankStates+53)+2
 4238 233a B091 0000 		lds r27,(bankStates+53)+3
 4239 233e E090 0000 		lds r14,bankStates+64
 4240 2342 F090 0000 		lds r15,(bankStates+64)+1
 4241 2346 0091 0000 		lds r16,(bankStates+64)+2
 4242 234a 1091 0000 		lds r17,(bankStates+64)+3
 4243 234e 2A19      		sub r18,r10
 4244 2350 3B09      		sbc r19,r11
 4245 2352 4C09      		sbc r20,r12
 4246 2354 5D09      		sbc r21,r13
 4247 2356 8E19      		sub r24,r14
 4248 2358 9F09      		sbc r25,r15
 4249 235a A00B      		sbc r26,r16
 4250 235c B10B      		sbc r27,r17
 4251 235e 8217      		cp r24,r18
 4252 2360 9307      		cpc r25,r19
 4253 2362 A407      		cpc r26,r20
 4254 2364 B507      		cpc r27,r21
 4255 2366 00F0      		brlo .L215
 4256 2368 00C0      		rjmp .L214
 4257               	.LVL97:
 4258               	.L206:
 4259               	.LM472:
 4260 236a 2091 0000 		lds r18,bankStates+64
 4261 236e 3091 0000 		lds r19,(bankStates+64)+1
 4262 2372 4091 0000 		lds r20,(bankStates+64)+2
 4263 2376 5091 0000 		lds r21,(bankStates+64)+3
 4264 237a 8091 0000 		lds r24,bankStates+57
 4265 237e 9091 0000 		lds r25,(bankStates+57)+1
 4266 2382 A091 0000 		lds r26,(bankStates+57)+2
 4267 2386 B091 0000 		lds r27,(bankStates+57)+3
 4268 238a 8217      		cp r24,r18
 4269 238c 9307      		cpc r25,r19
 4270 238e A407      		cpc r26,r20
 4271 2390 B507      		cpc r27,r21
 4272 2392 00F4      		brsh .L208
 4273               	.L214:
 4274               	.LM473:
 4275 2394 8091 0000 		lds r24,bankStates+57
 4276 2398 9091 0000 		lds r25,(bankStates+57)+1
 4277 239c A091 0000 		lds r26,(bankStates+57)+2
 4278 23a0 B091 0000 		lds r27,(bankStates+57)+3
 4279 23a4 00C0      		rjmp .L211
 4280               	.L208:
 4281               	.LM474:
 4282 23a6 2091 0000 		lds r18,bankStates+64
 4283 23aa 3091 0000 		lds r19,(bankStates+64)+1
 4284 23ae 4091 0000 		lds r20,(bankStates+64)+2
 4285 23b2 5091 0000 		lds r21,(bankStates+64)+3
 4286 23b6 8091 0000 		lds r24,bankStates+53
 4287 23ba 9091 0000 		lds r25,(bankStates+53)+1
 4288 23be A091 0000 		lds r26,(bankStates+53)+2
 4289 23c2 B091 0000 		lds r27,(bankStates+53)+3
 4290 23c6 2817      		cp r18,r24
 4291 23c8 3907      		cpc r19,r25
 4292 23ca 4A07      		cpc r20,r26
 4293 23cc 5B07      		cpc r21,r27
 4294 23ce 00F4      		brsh .L196
 4295               	.L215:
 4296               	.LM475:
 4297 23d0 8091 0000 		lds r24,bankStates+53
 4298 23d4 9091 0000 		lds r25,(bankStates+53)+1
 4299 23d8 A091 0000 		lds r26,(bankStates+53)+2
 4300 23dc B091 0000 		lds r27,(bankStates+53)+3
 4301               	.L211:
 4302 23e0 8093 0000 		sts bankStates+64,r24
 4303 23e4 9093 0000 		sts (bankStates+64)+1,r25
 4304 23e8 A093 0000 		sts (bankStates+64)+2,r26
 4305 23ec B093 0000 		sts (bankStates+64)+3,r27
 4306               	.L196:
 4307               	.LM476:
 4308 23f0 E981      		ldd r30,Y+1
 4309 23f2 EFBF      		out __SREG__,r30
 4310               	/* epilogue start */
 4311               	.LM477:
 4312 23f4 0F90      		pop __tmp_reg__
 4313 23f6 CF91      		pop r28
 4314 23f8 DF91      		pop r29
 4315 23fa 1F91      		pop r17
 4316 23fc 0F91      		pop r16
 4317 23fe FF90      		pop r15
 4318 2400 EF90      		pop r14
 4319 2402 DF90      		pop r13
 4320 2404 CF90      		pop r12
 4321 2406 BF90      		pop r11
 4322 2408 AF90      		pop r10
 4323               	.LVL98:
 4324 240a 9F90      		pop r9
 4325 240c 8F90      		pop r8
 4326 240e 7F90      		pop r7
 4327 2410 6F90      		pop r6
 4328 2412 5F90      		pop r5
 4329 2414 4F90      		pop r4
 4330 2416 3F90      		pop r3
 4331 2418 2F90      		pop r2
 4332 241a 0895      		ret
 4333               	.LFE54:
 4336               	BlinkLeds:
 4337               	.LFB18:
 4338               	.LM478:
 4339               	.LVL99:
 4340               	/* prologue: function */
 4341               	/* frame size = 0 */
 4342 241c A82F      		mov r26,r24
 4343               	.LM479:
 4344 241e 8091 0000 		lds r24,ledBlinkMask
 4345               	.LVL100:
 4346 2422 682F      		mov r22,r24
 4347 2424 70E0      		ldi r23,lo8(0)
 4348 2426 5091 0000 		lds r21,ledOnOffMask
 4349 242a 20E0      		ldi r18,lo8(0)
 4350 242c 30E0      		ldi r19,hi8(0)
 4351               	.LM480:
 4352 242e E1E0      		ldi r30,lo8(1)
 4353 2430 F0E0      		ldi r31,hi8(1)
 4354               	.L218:
 4355               	.LM481:
 4356 2432 CB01      		movw r24,r22
 4357 2434 022E      		mov r0,r18
 4358 2436 00C0      		rjmp 2f
 4359 2438 9595      	1:	asr r25
 4360 243a 8795      		ror r24
 4361 243c 0A94      	2:	dec r0
 4362 243e 02F4      		brpl 1b
 4363 2440 80FF      		sbrs r24,0
 4364 2442 00C0      		rjmp .L217
 4365               	.LM482:
 4366 2444 CF01      		movw r24,r30
 4367 2446 022E      		mov r0,r18
 4368 2448 00C0      		rjmp 2f
 4369 244a 880F      	1:	lsl r24
 4370 244c 991F      		rol r25
 4371 244e 0A94      	2:	dec r0
 4372 2450 02F4      		brpl 1b
 4373 2452 8095      		com r24
 4374 2454 5823      		and r21,r24
 4375               	.L217:
 4376 2456 2F5F      		subi r18,lo8(-(1))
 4377 2458 3F4F      		sbci r19,hi8(-(1))
 4378               	.LM483:
 4379 245a 2830      		cpi r18,8
 4380 245c 3105      		cpc r19,__zero_reg__
 4381 245e 01F4      		brne .L218
 4382 2460 5093 0000 		sts ledOnOffMask,r21
 4383               	.LM484:
 4384 2464 A093 0000 		sts ledBlinkMask,r26
 4385               	.LM485:
 4386 2468 82E0      		ldi r24,lo8(2)
 4387 246a 68E9      		ldi r22,lo8(152)
 4388 246c 70E0      		ldi r23,hi8(152)
 4389 246e 0E94 0000 		call SetTimer
 4390               	.LVL101:
 4391               	/* epilogue start */
 4392               	.LM486:
 4393 2472 0895      		ret
 4394               	.LFE18:
 4397               	KillLeds:
 4398               	.LFB20:
 4399               	.LM487:
 4400               	/* prologue: function */
 4401               	/* frame size = 0 */
 4402               	.LM488:
 4403 2474 1092 0000 		sts ledOnOffMask,__zero_reg__
 4404               	.LM489:
 4405 2478 80E0      		ldi r24,lo8(0)
 4406 247a 90E0      		ldi r25,hi8(0)
 4407 247c 0E94 0000 		call BlinkLeds
 4408               	/* epilogue start */
 4409               	.LM490:
 4410 2480 0895      		ret
 4411               	.LFE20:
 4414               	DoFormatCard:
 4415               	.LFB33:
 4416               	.LM491:
 4417               	/* prologue: function */
 4418               	/* frame size = 0 */
 4419               	.LM492:
 4420 2482 8091 0000 		lds r24,subState
 4421 2486 8823      		tst r24
 4422 2488 01F4      		brne .L224
 4423               	.LM493:
 4424 248a 0E94 0000 		call KillLeds
 4425               	.LM494:
 4426 248e 1092 0000 		sts bankStates,__zero_reg__
 4427               	.LM495:
 4428 2492 1092 0000 		sts bankStates+8,__zero_reg__
 4429               	.LM496:
 4430 2496 1092 0000 		sts bankStates+34,__zero_reg__
 4431               	.LM497:
 4432 249a 1092 0000 		sts bankStates+42,__zero_reg__
 4433               	.LM498:
 4434 249e 81E8      		ldi r24,lo8(129)
 4435 24a0 90E0      		ldi r25,hi8(129)
 4436 24a2 0E94 0000 		call BlinkLeds
 4437               	.LM499:
 4438 24a6 81E0      		ldi r24,lo8(1)
 4439 24a8 00C0      		rjmp .L230
 4440               	.L224:
 4441               	.LM500:
 4442 24aa 8130      		cpi r24,lo8(1)
 4443 24ac 01F4      		brne .L226
 4444               	.LM501:
 4445 24ae 8091 0000 		lds r24,keyState
 4446 24b2 80FF      		sbrs r24,0
 4447 24b4 00C0      		rjmp .L227
 4448 24b6 87FF      		sbrs r24,7
 4449 24b8 00C0      		rjmp .L227
 4450               	.LM502:
 4451 24ba 85E0      		ldi r24,lo8(5)
 4452 24bc 8093 0000 		sts cardState,r24
 4453               	.LM503:
 4454 24c0 0E94 0000 		call KillLeds
 4455               	.LM504:
 4456 24c4 8091 0000 		lds r24,ledOnOffMask
 4457 24c8 8168      		ori r24,lo8(-127)
 4458 24ca 8093 0000 		sts ledOnOffMask,r24
 4459               	.LM505:
 4460 24ce 82E0      		ldi r24,lo8(2)
 4461               	.L230:
 4462 24d0 8093 0000 		sts subState,r24
 4463 24d4 0895      		ret
 4464               	.L227:
 4465               	.LM506:
 4466 24d6 8091 0000 		lds r24,cardState
 4467 24da 8823      		tst r24
 4468 24dc 01F4      		brne .L229
 4469               	.LBB112:
 4470               	.LBB113:
 4471               	.LM507:
 4472 24de 80E0      		ldi r24,lo8(gs(DoFruitcakeIntro))
 4473 24e0 90E0      		ldi r25,hi8(gs(DoFruitcakeIntro))
 4474 24e2 9093 0000 		sts (State)+1,r25
 4475 24e6 8093 0000 		sts State,r24
 4476               	.LM508:
 4477 24ea 1092 0000 		sts subState,__zero_reg__
 4478 24ee 0895      		ret
 4479               	.L226:
 4480               	.LBE113:
 4481               	.LBE112:
 4482               	.LM509:
 4483 24f0 8230      		cpi r24,lo8(2)
 4484 24f2 01F4      		brne .L229
 4485               	.LM510:
 4486 24f4 8091 0000 		lds r24,cardState
 4487 24f8 8930      		cpi r24,lo8(9)
 4488 24fa 01F4      		brne .L229
 4489               	.LM511:
 4490 24fc 0E94 0000 		call KillLeds
 4491               	.LM512:
 4492 2500 8091 0000 		lds r24,ledOnOffMask
 4493 2504 8260      		ori r24,lo8(2)
 4494 2506 8093 0000 		sts ledOnOffMask,r24
 4495               	.LM513:
 4496 250a 8091 0000 		lds r24,cardState
 4497 250e 8823      		tst r24
 4498 2510 01F0      		breq .L228
 4499 2512 8091 0000 		lds r24,newKeys
 4500 2516 8823      		tst r24
 4501 2518 01F0      		breq .L229
 4502               	.L228:
 4503               	.LBB114:
 4504               	.LBB115:
 4505               	.LM514:
 4506 251a 80E0      		ldi r24,lo8(gs(DoFruitcakeIntro))
 4507 251c 90E0      		ldi r25,hi8(gs(DoFruitcakeIntro))
 4508 251e 9093 0000 		sts (State)+1,r25
 4509 2522 8093 0000 		sts State,r24
 4510               	.LM515:
 4511 2526 1092 0000 		sts subState,__zero_reg__
 4512               	.L229:
 4513 252a 0895      		ret
 4514               	.LBE115:
 4515               	.LBE114:
 4516               	.LFE33:
 4519               	DoSawtooth:
 4520               	.LFB60:
 4521               	.LM516:
 4522               	/* prologue: function */
 4523               	/* frame size = 0 */
 4524               	.LM517:
 4525 252c 8091 0000 		lds r24,subState
 4526 2530 8823      		tst r24
 4527 2532 01F4      		brne .L232
 4528               	.LM518:
 4529 2534 0E94 0000 		call KillLeds
 4530               	.LM519:
 4531 2538 80EC      		ldi r24,lo8(192)
 4532 253a 90E0      		ldi r25,hi8(192)
 4533 253c 0E94 0000 		call BlinkLeds
 4534               	.LM520:
 4535 2540 81E0      		ldi r24,lo8(1)
 4536 2542 00C0      		rjmp .L244
 4537               	.L232:
 4538               	.LM521:
 4539 2544 8130      		cpi r24,lo8(1)
 4540 2546 01F4      		brne .L234
 4541               	.LM522:
 4542               	/* #APP */
 4543               	 ;  4050 "WTPA.c" 1
 4544 2548 F894      		cli
 4545               	 ;  0 "" 2
 4546               	.LM523:
 4547               	/* #NOAPP */
 4548 254a 8093 0000 		sts bankStates,r24
 4549               	.LM524:
 4550 254e 8093 0000 		sts bankStates+8,r24
 4551               	.LM525:
 4552 2552 80E0      		ldi r24,lo8(0)
 4553 2554 61E0      		ldi r22,lo8(1)
 4554 2556 40E0      		ldi r20,lo8(0)
 4555 2558 50E0      		ldi r21,hi8(0)
 4556 255a 0E94 0000 		call SetSampleClock
 4557               	.LM526:
 4558 255e 80E0      		ldi r24,lo8(gs(OutputAddBanks))
 4559 2560 90E0      		ldi r25,hi8(gs(OutputAddBanks))
 4560 2562 9093 0000 		sts (UpdateOutput)+1,r25
 4561 2566 8093 0000 		sts UpdateOutput,r24
 4562               	.LM527:
 4563               	/* #APP */
 4564               	 ;  4055 "WTPA.c" 1
 4565 256a 7894      		sei
 4566               	 ;  0 "" 2
 4567               	.LM528:
 4568               	/* #NOAPP */
 4569 256c 8091 0000 		lds r24,encoderValue
 4570 2570 8093 0000 		sts lastShuttleRead.3178,r24
 4571               	.LM529:
 4572 2574 82E0      		ldi r24,lo8(2)
 4573               	.L244:
 4574 2576 8093 0000 		sts subState,r24
 4575 257a 0895      		ret
 4576               	.L234:
 4577               	.LM530:
 4578 257c 8230      		cpi r24,lo8(2)
 4579 257e 01F0      		breq .+2
 4580 2580 00C0      		rjmp .L243
 4581               	.LM531:
 4582 2582 8091 0000 		lds r24,newKeys
 4583 2586 282F      		mov r18,r24
 4584 2588 80FF      		sbrs r24,0
 4585 258a 00C0      		rjmp .L235
 4586               	.LM532:
 4587 258c 8091 0000 		lds r24,ledOnOffMask
 4588 2590 91E0      		ldi r25,lo8(1)
 4589 2592 8927      		eor r24,r25
 4590 2594 8093 0000 		sts ledOnOffMask,r24
 4591               	.L235:
 4592               	.LM533:
 4593 2598 21FF      		sbrs r18,1
 4594 259a 00C0      		rjmp .L236
 4595               	.LM534:
 4596 259c 8091 0000 		lds r24,ledOnOffMask
 4597 25a0 92E0      		ldi r25,lo8(2)
 4598 25a2 8927      		eor r24,r25
 4599 25a4 8093 0000 		sts ledOnOffMask,r24
 4600               	.L236:
 4601               	.LM535:
 4602 25a8 22FF      		sbrs r18,2
 4603 25aa 00C0      		rjmp .L237
 4604               	.LM536:
 4605 25ac 8091 0000 		lds r24,ledOnOffMask
 4606 25b0 94E0      		ldi r25,lo8(4)
 4607 25b2 8927      		eor r24,r25
 4608 25b4 8093 0000 		sts ledOnOffMask,r24
 4609               	.L237:
 4610               	.LM537:
 4611 25b8 23FF      		sbrs r18,3
 4612 25ba 00C0      		rjmp .L238
 4613               	.LM538:
 4614 25bc 8091 0000 		lds r24,ledOnOffMask
 4615 25c0 98E0      		ldi r25,lo8(8)
 4616 25c2 8927      		eor r24,r25
 4617 25c4 8093 0000 		sts ledOnOffMask,r24
 4618               	.L238:
 4619               	.LM539:
 4620 25c8 24FF      		sbrs r18,4
 4621 25ca 00C0      		rjmp .L239
 4622               	.LM540:
 4623 25cc 8091 0000 		lds r24,ledOnOffMask
 4624 25d0 90E1      		ldi r25,lo8(16)
 4625 25d2 8927      		eor r24,r25
 4626 25d4 8093 0000 		sts ledOnOffMask,r24
 4627               	.L239:
 4628               	.LM541:
 4629 25d8 25FF      		sbrs r18,5
 4630 25da 00C0      		rjmp .L240
 4631               	.LM542:
 4632 25dc 8091 0000 		lds r24,ledOnOffMask
 4633 25e0 90E2      		ldi r25,lo8(32)
 4634 25e2 8927      		eor r24,r25
 4635 25e4 8093 0000 		sts ledOnOffMask,r24
 4636               	.L240:
 4637               	.LM543:
 4638 25e8 26FF      		sbrs r18,6
 4639 25ea 00C0      		rjmp .L241
 4640               	.LBB116:
 4641               	.LBB117:
 4642               	.LM544:
 4643 25ec 80E0      		ldi r24,lo8(0)
 4644 25ee 90E0      		ldi r25,hi8(0)
 4645 25f0 0E94 0000 		call BlinkLeds
 4646               	.LBE117:
 4647               	.LBE116:
 4648               	.LM545:
 4649 25f4 8091 0000 		lds r24,ledOnOffMask
 4650 25f8 90E4      		ldi r25,lo8(64)
 4651 25fa 8927      		eor r24,r25
 4652 25fc 8093 0000 		sts ledOnOffMask,r24
 4653               	.L241:
 4654               	.LM546:
 4655 2600 8091 0000 		lds r24,newKeys
 4656 2604 87FF      		sbrs r24,7
 4657 2606 00C0      		rjmp .L242
 4658               	.LBB118:
 4659               	.LBB119:
 4660               	.LM547:
 4661 2608 80E0      		ldi r24,lo8(0)
 4662 260a 90E0      		ldi r25,hi8(0)
 4663 260c 0E94 0000 		call BlinkLeds
 4664               	.LBE119:
 4665               	.LBE118:
 4666               	.LM548:
 4667 2610 8091 0000 		lds r24,ledOnOffMask
 4668 2614 8058      		subi r24,lo8(-(-128))
 4669 2616 8093 0000 		sts ledOnOffMask,r24
 4670               	.L242:
 4671               	.LM549:
 4672 261a 9091 0000 		lds r25,lastShuttleRead.3178
 4673 261e 8091 0000 		lds r24,encoderValue
 4674 2622 9817      		cp r25,r24
 4675 2624 01F0      		breq .L243
 4676               	.LBB120:
 4677               	.LBB121:
 4678               	.LM550:
 4679 2626 80E0      		ldi r24,lo8(0)
 4680 2628 90E0      		ldi r25,hi8(0)
 4681 262a 0E94 0000 		call BlinkLeds
 4682               	.LBE121:
 4683               	.LBE120:
 4684               	.LM551:
 4685 262e 8091 0000 		lds r24,encoderValue
 4686 2632 8093 0000 		sts ledOnOffMask,r24
 4687               	.LM552:
 4688 2636 8093 0000 		sts lastShuttleRead.3178,r24
 4689               	.L243:
 4690 263a 0895      		ret
 4691               	.LFE60:
 4694               	DoFruitcakeIntro:
 4695               	.LFB63:
 4696               	.LM553:
 4697 263c 1F93      		push r17
 4698               	/* prologue: function */
 4699               	/* frame size = 0 */
 4700               	.LM554:
 4701 263e 1091 0000 		lds r17,subState
 4702 2642 1123      		tst r17
 4703 2644 01F4      		brne .L246
 4704               	.LM555:
 4705 2646 0E94 0000 		call KillLeds
 4706               	.LM556:
 4707 264a 1092 0000 		sts i.3244,__zero_reg__
 4708               	.LM557:
 4709 264e 1092 0000 		sts ledOnOffMask,__zero_reg__
 4710               	.LM558:
 4711 2652 81E0      		ldi r24,lo8(1)
 4712 2654 8093 0000 		sts subState,r24
 4713               	.LM559:
 4714 2658 80E0      		ldi r24,lo8(0)
 4715 265a 61E3      		ldi r22,lo8(305)
 4716 265c 71E0      		ldi r23,hi8(305)
 4717 265e 00C0      		rjmp .L254
 4718               	.L246:
 4719               	.LM560:
 4720 2660 1130      		cpi r17,lo8(1)
 4721 2662 01F4      		brne .L248
 4722               	.LM561:
 4723 2664 80E0      		ldi r24,lo8(0)
 4724 2666 0E94 0000 		call CheckTimer
 4725 266a 8823      		tst r24
 4726 266c 01F4      		brne .+2
 4727 266e 00C0      		rjmp .L253
 4728               	.LM562:
 4729 2670 82E0      		ldi r24,lo8(2)
 4730 2672 00C0      		rjmp .L255
 4731               	.L248:
 4732               	.LM563:
 4733 2674 1230      		cpi r17,lo8(2)
 4734 2676 01F0      		breq .+2
 4735 2678 00C0      		rjmp .L249
 4736               	.LM564:
 4737 267a 8091 0000 		lds r24,i.3244
 4738 267e 8830      		cpi r24,lo8(8)
 4739 2680 00F4      		brsh .L250
 4740               	.LM565:
 4741 2682 80E0      		ldi r24,lo8(0)
 4742 2684 0E94 0000 		call CheckTimer
 4743 2688 8823      		tst r24
 4744 268a 01F4      		brne .+2
 4745 268c 00C0      		rjmp .L253
 4746               	.LM566:
 4747 268e 81E0      		ldi r24,lo8(1)
 4748 2690 90E0      		ldi r25,hi8(1)
 4749 2692 0090 0000 		lds r0,i.3244
 4750 2696 00C0      		rjmp 2f
 4751 2698 880F      	1:	lsl r24
 4752 269a 991F      		rol r25
 4753 269c 0A94      	2:	dec r0
 4754 269e 02F4      		brpl 1b
 4755 26a0 2091 0000 		lds r18,ledOnOffMask
 4756 26a4 282B      		or r18,r24
 4757 26a6 2093 0000 		sts ledOnOffMask,r18
 4758               	.LM567:
 4759 26aa 80E0      		ldi r24,lo8(0)
 4760 26ac 6DE3      		ldi r22,lo8(61)
 4761 26ae 70E0      		ldi r23,hi8(61)
 4762 26b0 0E94 0000 		call SetTimer
 4763               	.LM568:
 4764 26b4 8091 0000 		lds r24,i.3244
 4765 26b8 8F5F      		subi r24,lo8(-(1))
 4766 26ba 8093 0000 		sts i.3244,r24
 4767 26be 00C0      		rjmp .L253
 4768               	.L250:
 4769               	.LM569:
 4770 26c0 80E0      		ldi r24,lo8(0)
 4771 26c2 0E94 0000 		call CheckTimer
 4772 26c6 8823      		tst r24
 4773 26c8 01F4      		brne .+2
 4774 26ca 00C0      		rjmp .L253
 4775               	.LM570:
 4776 26cc 80E0      		ldi r24,lo8(0)
 4777 26ce 68E9      		ldi r22,lo8(152)
 4778 26d0 70E0      		ldi r23,hi8(152)
 4779 26d2 0E94 0000 		call SetTimer
 4780               	.LM571:
 4781 26d6 9FEF      		ldi r25,lo8(-1)
 4782 26d8 9093 0000 		sts ledPwm,r25
 4783               	.LM572:
 4784 26dc 8091 6400 		lds r24,100
 4785 26e0 8F7B      		andi r24,lo8(-65)
 4786 26e2 8093 6400 		sts 100,r24
 4787               	.LM573:
 4788 26e6 1093 B000 		sts 176,r17
 4789               	.LM574:
 4790 26ea 81E0      		ldi r24,lo8(1)
 4791 26ec 8093 B100 		sts 177,r24
 4792               	.LM575:
 4793 26f0 1092 B200 		sts 178,__zero_reg__
 4794               	.LM576:
 4795 26f4 80E8      		ldi r24,lo8(-128)
 4796 26f6 8093 B300 		sts 179,r24
 4797               	.LM577:
 4798 26fa 97BB      		out 55-32,r25
 4799               	.LM578:
 4800 26fc 1093 7000 		sts 112,r17
 4801               	.LM579:
 4802 2700 82B1      		in r24,34-32
 4803 2702 8660      		ori r24,lo8(6)
 4804 2704 82B9      		out 34-32,r24
 4805               	.LM580:
 4806 2706 94B9      		out 36-32,r25
 4807               	.LM581:
 4808 2708 5F9A      		sbi 43-32,7
 4809               	.LM582:
 4810 270a 83E0      		ldi r24,lo8(3)
 4811 270c 00C0      		rjmp .L255
 4812               	.L249:
 4813               	.LM583:
 4814 270e 1330      		cpi r17,lo8(3)
 4815 2710 01F4      		brne .L251
 4816               	.LM584:
 4817 2712 80E0      		ldi r24,lo8(0)
 4818 2714 0E94 0000 		call CheckTimer
 4819 2718 8823      		tst r24
 4820 271a 01F0      		breq .L253
 4821               	.LM585:
 4822 271c 8091 0000 		lds r24,ledPwm
 4823 2720 8230      		cpi r24,lo8(2)
 4824 2722 00F0      		brlo .L252
 4825               	.LM586:
 4826 2724 8091 0000 		lds r24,ledPwm
 4827 2728 8250      		subi r24,lo8(-(-2))
 4828 272a 8093 0000 		sts ledPwm,r24
 4829               	.LM587:
 4830 272e 80E0      		ldi r24,lo8(0)
 4831 2730 64E0      		ldi r22,lo8(4)
 4832 2732 70E0      		ldi r23,hi8(4)
 4833               	.L254:
 4834 2734 0E94 0000 		call SetTimer
 4835 2738 00C0      		rjmp .L253
 4836               	.L252:
 4837               	.LM588:
 4838 273a 1092 7000 		sts 112,__zero_reg__
 4839               	.LM589:
 4840 273e 1092 B000 		sts 176,__zero_reg__
 4841               	.LM590:
 4842 2742 1092 B100 		sts 177,__zero_reg__
 4843               	.LM591:
 4844 2746 8091 6400 		lds r24,100
 4845 274a 8064      		ori r24,lo8(64)
 4846 274c 8093 6400 		sts 100,r24
 4847               	.LM592:
 4848 2750 15B8      		out 37-32,__zero_reg__
 4849               	.LM593:
 4850 2752 5F98      		cbi 43-32,7
 4851               	.LM594:
 4852 2754 0E94 0000 		call KillLeds
 4853               	.LM595:
 4854 2758 80E1      		ldi r24,lo8(16)
 4855 275a 8093 0000 		sts ledOnOffMask,r24
 4856               	.LM596:
 4857 275e 80E0      		ldi r24,lo8(0)
 4858 2760 62E6      		ldi r22,lo8(610)
 4859 2762 72E0      		ldi r23,hi8(610)
 4860 2764 0E94 0000 		call SetTimer
 4861               	.LM597:
 4862 2768 84E0      		ldi r24,lo8(4)
 4863               	.L255:
 4864 276a 8093 0000 		sts subState,r24
 4865 276e 00C0      		rjmp .L253
 4866               	.L251:
 4867               	.LM598:
 4868 2770 1430      		cpi r17,lo8(4)
 4869 2772 01F4      		brne .L253
 4870               	.LM599:
 4871 2774 80E0      		ldi r24,lo8(0)
 4872 2776 0E94 0000 		call CheckTimer
 4873 277a 8823      		tst r24
 4874 277c 01F0      		breq .L253
 4875               	.LM600:
 4876 277e 0E94 0000 		call KillLeds
 4877               	.LBB122:
 4878               	.LBB123:
 4879               	.LM601:
 4880 2782 80E0      		ldi r24,lo8(gs(DoStartupSelect))
 4881 2784 90E0      		ldi r25,hi8(gs(DoStartupSelect))
 4882 2786 9093 0000 		sts (State)+1,r25
 4883 278a 8093 0000 		sts State,r24
 4884               	.LM602:
 4885 278e 1092 0000 		sts subState,__zero_reg__
 4886               	.L253:
 4887               	/* epilogue start */
 4888               	.LBE123:
 4889               	.LBE122:
 4890               	.LM603:
 4891 2792 1F91      		pop r17
 4892 2794 0895      		ret
 4893               	.LFE63:
 4896               	DoStartupSelect:
 4897               	.LFB62:
 4898               	.LM604:
 4899               	/* prologue: function */
 4900               	/* frame size = 0 */
 4901               	.LM605:
 4902 2796 8091 0000 		lds r24,subState
 4903 279a 8823      		tst r24
 4904 279c 01F4      		brne .L257
 4905               	.LM606:
 4906 279e 68E9      		ldi r22,lo8(152)
 4907 27a0 70E0      		ldi r23,hi8(152)
 4908 27a2 0E94 0000 		call SetTimer
 4909               	.LM607:
 4910 27a6 81E0      		ldi r24,lo8(1)
 4911 27a8 8093 0000 		sts subState,r24
 4912 27ac 0895      		ret
 4913               	.L257:
 4914               	.LM608:
 4915 27ae 80E0      		ldi r24,lo8(0)
 4916 27b0 0E94 0000 		call CheckTimer
 4917 27b4 8823      		tst r24
 4918 27b6 01F0      		breq .L261
 4919               	.LM609:
 4920 27b8 8091 0000 		lds r24,keyState
 4921 27bc 80FF      		sbrs r24,0
 4922 27be 00C0      		rjmp .L259
 4923               	.LBB124:
 4924               	.LBB125:
 4925               	.LM610:
 4926 27c0 80E0      		ldi r24,lo8(gs(DoSawtooth))
 4927 27c2 90E0      		ldi r25,hi8(gs(DoSawtooth))
 4928 27c4 00C0      		rjmp .L262
 4929               	.L259:
 4930               	.LBE125:
 4931               	.LBE124:
 4932               	.LM611:
 4933 27c6 85FF      		sbrs r24,5
 4934 27c8 00C0      		rjmp .L260
 4935               	.LBB126:
 4936               	.LBB127:
 4937               	.LM612:
 4938 27ca 80E0      		ldi r24,lo8(gs(SetMidiChannels))
 4939 27cc 90E0      		ldi r25,hi8(gs(SetMidiChannels))
 4940               	.L262:
 4941 27ce 9093 0000 		sts (State)+1,r25
 4942 27d2 8093 0000 		sts State,r24
 4943               	.LM613:
 4944 27d6 1092 0000 		sts subState,__zero_reg__
 4945 27da 0895      		ret
 4946               	.L260:
 4947               	.LBE127:
 4948               	.LBE126:
 4949               	.LBB128:
 4950               	.LBB129:
 4951               	.LM614:
 4952 27dc 80E0      		ldi r24,lo8(gs(DoSampler))
 4953 27de 90E0      		ldi r25,hi8(gs(DoSampler))
 4954 27e0 9093 0000 		sts (State)+1,r25
 4955 27e4 8093 0000 		sts State,r24
 4956               	.LM615:
 4957 27e8 1092 0000 		sts subState,__zero_reg__
 4958               	.L261:
 4959 27ec 0895      		ret
 4960               	.LBE129:
 4961               	.LBE128:
 4962               	.LFE62:
 4964               	.global	main
 4966               	main:
 4967               	.LFB64:
 4968               	.LM616:
 4969 27ee 2F92      		push r2
 4970 27f0 3F92      		push r3
 4971 27f2 4F92      		push r4
 4972 27f4 5F92      		push r5
 4973 27f6 6F92      		push r6
 4974 27f8 7F92      		push r7
 4975 27fa 8F92      		push r8
 4976 27fc 9F92      		push r9
 4977 27fe AF92      		push r10
 4978 2800 BF92      		push r11
 4979 2802 CF92      		push r12
 4980 2804 DF92      		push r13
 4981 2806 EF92      		push r14
 4982 2808 FF92      		push r15
 4983 280a 0F93      		push r16
 4984 280c 1F93      		push r17
 4985 280e CF93      		push r28
 4986 2810 DF93      		push r29
 4987               	/* prologue: function */
 4988               	/* frame size = 0 */
 4989               	.LM617:
 4990 2812 1FEF      		ldi r17,lo8(-1)
 4991 2814 1093 6400 		sts 100,r17
 4992               	.LM618:
 4993 2818 85B7      		in r24,85-32
 4994 281a 8F7E      		andi r24,lo8(-17)
 4995 281c 85BF      		out 85-32,r24
 4996               	.LM619:
 4997 281e 8FEE      		ldi r24,lo8(-17)
 4998 2820 87B9      		out 39-32,r24
 4999               	.LM620:
 5000 2822 88E0      		ldi r24,lo8(8)
 5001 2824 88B9      		out 40-32,r24
 5002               	.LM621:
 5003 2826 90E8      		ldi r25,lo8(-128)
 5004 2828 9AB9      		out 42-32,r25
 5005               	.LM622:
 5006 282a 1BB8      		out 43-32,__zero_reg__
 5007               	.LM623:
 5008 282c 86E0      		ldi r24,lo8(6)
 5009 282e 82B9      		out 34-32,r24
 5010               	.LM624:
 5011 2830 8EE3      		ldi r24,lo8(62)
 5012 2832 81B9      		out 33-32,r24
 5013               	.LM625:
 5014 2834 14B9      		out 36-32,r17
 5015               	.LM626:
 5016 2836 95B9      		out 37-32,r25
 5017               	.LM627:
 5018 2838 129A      		sbi 34-32,2
 5019               	.LM628:
 5020 283a 14B9      		out 36-32,r17
 5021               	.LM629:
 5022 283c 159A      		sbi 34-32,5
 5023               	.LM630:
 5024 283e 1598      		cbi 34-32,5
 5025               	.LM631:
 5026 2840 0E94 0000 		call InitSdInterface
 5027               	.LBB166:
 5028               	.LBB167:
 5029               	.LM632:
 5030 2844 81E0      		ldi r24,lo8(1)
 5031 2846 66E2      		ldi r22,lo8(38)
 5032 2848 70E0      		ldi r23,hi8(38)
 5033 284a 0E94 0000 		call SetTimer
 5034               	.LM633:
 5035 284e 3D98      		cbi 39-32,5
 5036               	.LM634:
 5037 2850 459A      		sbi 40-32,5
 5038               	.LBE167:
 5039               	.LBE166:
 5040               	.LBB168:
 5041               	.LBB169:
 5042               	.LM635:
 5043 2852 80B1      		in r24,32-32
 5044 2854 807C      		andi r24,lo8(-64)
 5045 2856 8093 0000 		sts encoderState,r24
 5046               	.LM636:
 5047 285a 1092 0000 		sts encoderValue,__zero_reg__
 5048               	.LBE169:
 5049               	.LBE168:
 5050               	.LBB170:
 5051               	.LBB171:
 5052               	.LM637:
 5053 285e 1092 0000 		sts ledOnOffMask,__zero_reg__
 5054               	.LM638:
 5055 2862 1092 0000 		sts ledBlinkMask,__zero_reg__
 5056               	.LBB172:
 5057               	.LBB173:
 5058               	.LM639:
 5059 2866 8FB7      		in r24,__SREG__
 5060               	.LVL102:
 5061               	.LM640:
 5062               	/* #APP */
 5063               	 ;  1338 "WTPA.c" 1
 5064 2868 F894      		cli
 5065               	 ;  0 "" 2
 5066               	.LM641:
 5067               	/* #NOAPP */
 5068 286a 15B8      		out 37-32,__zero_reg__
 5069               	.LM642:
 5070 286c 14B9      		out 36-32,r17
 5071               	.LM643:
 5072 286e 5F9A      		sbi 43-32,7
 5073               	.LM644:
 5074 2870 5F98      		cbi 43-32,7
 5075               	.LM645:
 5076 2872 8FBF      		out __SREG__,r24
 5077               	.LBE173:
 5078               	.LBE172:
 5079               	.LBE171:
 5080               	.LBE170:
 5081               	.LM646:
 5082 2874 0E94 0000 		call InitMidi
 5083               	.LVL103:
 5084               	.LM647:
 5085 2878 0E94 0000 		call InitUart0
 5086               	.LBB174:
 5087               	.LBB175:
 5088               	.LM648:
 5089 287c 8091 6400 		lds r24,100
 5090 2880 8E7F      		andi r24,lo8(-2)
 5091 2882 8093 6400 		sts 100,r24
 5092               	.LM649:
 5093 2886 80E6      		ldi r24,lo8(96)
 5094 2888 8093 7C00 		sts 124,r24
 5095               	.LM650:
 5096 288c 81E0      		ldi r24,lo8(1)
 5097 288e 8093 7E00 		sts 126,r24
 5098               	.LM651:
 5099 2892 85E9      		ldi r24,lo8(-107)
 5100 2894 8093 7A00 		sts 122,r24
 5101               	.LM652:
 5102 2898 8091 7A00 		lds r24,122
 5103 289c 8064      		ori r24,lo8(64)
 5104 289e 8093 7A00 		sts 122,r24
 5105               	.LBE175:
 5106               	.LBE174:
 5107               	.LBB176:
 5108               	.LBB177:
 5109               	.LM653:
 5110 28a2 8091 6400 		lds r24,100
 5111 28a6 8F7D      		andi r24,lo8(-33)
 5112 28a8 8093 6400 		sts 100,r24
 5113               	.LM654:
 5114 28ac 1092 6E00 		sts 110,__zero_reg__
 5115               	.LM655:
 5116 28b0 14BC      		out 68-32,__zero_reg__
 5117               	.LM656:
 5118 28b2 16BC      		out 70-32,__zero_reg__
 5119               	.LM657:
 5120 28b4 15BB      		out 53-32,r17
 5121               	.LM658:
 5122 28b6 1092 0000 		sts (systemTicks)+1,__zero_reg__
 5123 28ba 1092 0000 		sts systemTicks,__zero_reg__
 5124               	.LM659:
 5125 28be 83E0      		ldi r24,lo8(3)
 5126 28c0 85BD      		out 69-32,r24
 5127               	.LBE177:
 5128               	.LBE176:
 5129               	.LBB178:
 5130               	.LBB179:
 5131               	.LM660:
 5132 28c2 8091 6400 		lds r24,100
 5133 28c6 877F      		andi r24,lo8(-9)
 5134 28c8 8093 6400 		sts 100,r24
 5135               	.LM661:
 5136 28cc 1092 6F00 		sts 111,__zero_reg__
 5137               	.LM662:
 5138 28d0 8FEF      		ldi r24,lo8(-1)
 5139 28d2 9FEF      		ldi r25,hi8(-1)
 5140 28d4 9093 8900 		sts (136)+1,r25
 5141 28d8 8093 8800 		sts 136,r24
 5142               	.LM663:
 5143 28dc 9093 8B00 		sts (138)+1,r25
 5144 28e0 8093 8A00 		sts 138,r24
 5145               	.LM664:
 5146 28e4 1092 8000 		sts 128,__zero_reg__
 5147               	.LM665:
 5148 28e8 1092 8100 		sts 129,__zero_reg__
 5149               	.LM666:
 5150 28ec 1092 8500 		sts (132)+1,__zero_reg__
 5151 28f0 1092 8400 		sts 132,__zero_reg__
 5152               	.LM667:
 5153 28f4 16BB      		out 54-32,r17
 5154               	.LBE179:
 5155               	.LBE178:
 5156               	.LM668:
 5157 28f6 1092 0000 		sts newKeys,__zero_reg__
 5158               	.LM669:
 5159 28fa 1092 0000 		sts keyState,__zero_reg__
 5160               	.LM670:
 5161 28fe 1092 0000 		sts cardState,__zero_reg__
 5162               	.LM671:
 5163 2902 1092 0000 		sts cardDetect,__zero_reg__
 5164               	.LM672:
 5165 2906 1092 0000 		sts sdWritingFrom0,__zero_reg__
 5166               	.LM673:
 5167 290a 1092 0000 		sts sdWritingFrom1,__zero_reg__
 5168               	.LM674:
 5169 290e 1092 0000 		sts sdReadingInto0,__zero_reg__
 5170               	.LM675:
 5171 2912 1092 0000 		sts sdReadingInto1,__zero_reg__
 5172               	.LM676:
 5173               	/* #APP */
 5174               	 ;  4365 "WTPA.c" 1
 5175 2916 7894      		sei
 5176               	 ;  0 "" 2
 5177               	/* #NOAPP */
 5178               	.LBB180:
 5179               	.LBB181:
 5180               	.LM677:
 5181 2918 80E0      		ldi r24,lo8(gs(DoFruitcakeIntro))
 5182 291a 90E0      		ldi r25,hi8(gs(DoFruitcakeIntro))
 5183 291c 9093 0000 		sts (State)+1,r25
 5184 2920 8093 0000 		sts State,r24
 5185               	.LM678:
 5186 2924 1092 0000 		sts subState,__zero_reg__
 5187               	.LBE181:
 5188               	.LBE180:
 5189               	.LBB182:
 5190               	.LBB183:
 5191               	.LM679:
 5192 2928 FF24      		clr r15
 5193 292a FA94      		dec r15
 5194               	.LBE183:
 5195               	.LBE182:
 5196               	.LBB185:
 5197               	.LBB186:
 5198               	.LM680:
 5199 292c F1E0      		ldi r31,lo8(1)
 5200 292e 8F2E      		mov r8,r31
 5201 2930 912C      		mov r9,__zero_reg__
 5202               	.LBE186:
 5203               	.LBE185:
 5204               	.LBB194:
 5205               	.LBB195:
 5206               	.LM681:
 5207 2932 EAE0      		ldi r30,lo8(10)
 5208 2934 EE2E      		mov r14,r30
 5209               	.LBB196:
 5210               	.LBB197:
 5211               	.LM682:
 5212 2936 70E0      		ldi r23,lo8(gs(DoFormatCard))
 5213 2938 672E      		mov r6,r23
 5214 293a 70E0      		ldi r23,hi8(gs(DoFormatCard))
 5215 293c 772E      		mov r7,r23
 5216               	.LBE197:
 5217               	.LBE196:
 5218               	.LM683:
 5219 293e 69E0      		ldi r22,lo8(9)
 5220 2940 362E      		mov r3,r22
 5221               	.LM684:
 5222 2942 412C      		mov r4,__zero_reg__
 5223 2944 52E0      		ldi r21,hi8(512)
 5224 2946 552E      		mov r5,r21
 5225               	.LM685:
 5226 2948 46E0      		ldi r20,lo8(6)
 5227 294a 242E      		mov r2,r20
 5228               	.LBE195:
 5229               	.LBE194:
 5230               	.LBB217:
 5231               	.LBB218:
 5232               	.LM686:
 5233 294c 35EB      		ldi r19,lo8(548050357)
 5234 294e A32E      		mov r10,r19
 5235 2950 35E9      		ldi r19,hi8(548050357)
 5236 2952 B32E      		mov r11,r19
 5237 2954 3AEA      		ldi r19,hlo8(548050357)
 5238 2956 C32E      		mov r12,r19
 5239 2958 30E2      		ldi r19,hhi8(548050357)
 5240 295a D32E      		mov r13,r19
 5241               	.LVL104:
 5242               	.L324:
 5243               	.LBE218:
 5244               	.LBE217:
 5245               	.LBB220:
 5246               	.LM687:
 5247 295c 81E0      		ldi r24,lo8(1)
 5248 295e 0E94 0000 		call CheckTimer
 5249               	.LBB184:
 5250 2962 8823      		tst r24
 5251 2964 01F0      		breq .L264
 5252               	.LM688:
 5253 2966 9FB7      		in r25,__SREG__
 5254               	.LVL105:
 5255               	.LM689:
 5256               	/* #APP */
 5257               	 ;  1421 "WTPA.c" 1
 5258 2968 F894      		cli
 5259               	 ;  0 "" 2
 5260               	.LM690:
 5261               	/* #NOAPP */
 5262 296a F5B8      		out 37-32,r15
 5263               	.LM691:
 5264 296c 14B8      		out 36-32,__zero_reg__
 5265               	.LM692:
 5266 296e 4398      		cbi 40-32,3
 5267               	.LM693:
 5268               	/* #APP */
 5269               	 ;  1425 "WTPA.c" 1
 5270 2970 0000      		nop
 5271               	 ;  0 "" 2
 5272               	.LM694:
 5273               	 ;  1426 "WTPA.c" 1
 5274 2972 0000      		nop
 5275               	 ;  0 "" 2
 5276               	.LM695:
 5277               	/* #NOAPP */
 5278 2974 83B1      		in r24,35-32
 5279 2976 8095      		com r24
 5280 2978 8093 0000 		sts keyState,r24
 5281               	.LM696:
 5282 297c 439A      		sbi 40-32,3
 5283               	.LM697:
 5284 297e F4B8      		out 36-32,r15
 5285               	.LM698:
 5286 2980 9FBF      		out __SREG__,r25
 5287               	.LM699:
 5288 2982 3599      		sbic 38-32,5
 5289 2984 00C0      		rjmp .L265
 5290               	.LM700:
 5291 2986 81E0      		ldi r24,lo8(1)
 5292 2988 8093 0000 		sts cardDetect,r24
 5293 298c 00C0      		rjmp .L266
 5294               	.L265:
 5295               	.LM701:
 5296 298e 1092 0000 		sts cardDetect,__zero_reg__
 5297               	.L266:
 5298               	.LM702:
 5299 2992 81E0      		ldi r24,lo8(1)
 5300 2994 66E2      		ldi r22,lo8(38)
 5301 2996 70E0      		ldi r23,hi8(38)
 5302 2998 0E94 0000 		call SetTimer
 5303               	.LVL106:
 5304               	.L264:
 5305               	.LM703:
 5306 299c 9091 0000 		lds r25,keyState
 5307 29a0 8091 0000 		lds r24,lastKeyState.2386
 5308 29a4 8095      		com r24
 5309 29a6 8923      		and r24,r25
 5310 29a8 8093 0000 		sts newKeys,r24
 5311               	.LM704:
 5312 29ac 9093 0000 		sts lastKeyState.2386,r25
 5313               	.LBE184:
 5314               	.LBE220:
 5315               	.LBB221:
 5316               	.LBB222:
 5317               	.LM705:
 5318 29b0 2091 0000 		lds r18,systemTicks
 5319 29b4 3091 0000 		lds r19,(systemTicks)+1
 5320 29b8 8091 0000 		lds r24,lastEncTime.2418
 5321 29bc 9091 0000 		lds r25,(lastEncTime.2418)+1
 5322 29c0 2817      		cp r18,r24
 5323 29c2 3907      		cpc r19,r25
 5324 29c4 01F0      		breq .L267
 5325               	.LM706:
 5326 29c6 8091 0000 		lds r24,systemTicks
 5327 29ca 9091 0000 		lds r25,(systemTicks)+1
 5328 29ce 9093 0000 		sts (lastEncTime.2418)+1,r25
 5329 29d2 8093 0000 		sts lastEncTime.2418,r24
 5330               	.LM707:
 5331 29d6 90B1      		in r25,32-32
 5332 29d8 907C      		andi r25,lo8(-64)
 5333 29da 9093 0000 		sts encoderState,r25
 5334               	.LM708:
 5335 29de 8091 0000 		lds r24,lastEncoderState.2417
 5336 29e2 9817      		cp r25,r24
 5337 29e4 01F0      		breq .L267
 5338               	.LM709:
 5339 29e6 9923      		tst r25
 5340 29e8 01F4      		brne .L268
 5341               	.LM710:
 5342 29ea 8038      		cpi r24,lo8(-128)
 5343 29ec 01F0      		breq .L338
 5344               	.L269:
 5345               	.LM711:
 5346 29ee 8034      		cpi r24,lo8(64)
 5347 29f0 01F4      		brne .L270
 5348 29f2 00C0      		rjmp .L339
 5349               	.L268:
 5350               	.LM712:
 5351 29f4 9034      		cpi r25,lo8(64)
 5352 29f6 01F4      		brne .L271
 5353               	.LM713:
 5354 29f8 8823      		tst r24
 5355 29fa 01F0      		breq .L338
 5356               	.L272:
 5357               	.LM714:
 5358 29fc 803C      		cpi r24,lo8(-64)
 5359 29fe 01F4      		brne .L270
 5360 2a00 00C0      		rjmp .L339
 5361               	.L271:
 5362               	.LM715:
 5363 2a02 903C      		cpi r25,lo8(-64)
 5364 2a04 01F4      		brne .L273
 5365               	.LM716:
 5366 2a06 8034      		cpi r24,lo8(64)
 5367 2a08 01F0      		breq .L338
 5368               	.L274:
 5369               	.LM717:
 5370 2a0a 8038      		cpi r24,lo8(-128)
 5371 2a0c 01F4      		brne .L270
 5372 2a0e 00C0      		rjmp .L339
 5373               	.L273:
 5374               	.LM718:
 5375 2a10 9038      		cpi r25,lo8(-128)
 5376 2a12 01F4      		brne .L270
 5377               	.LM719:
 5378 2a14 803C      		cpi r24,lo8(-64)
 5379 2a16 01F4      		brne .L275
 5380               	.L338:
 5381               	.LM720:
 5382 2a18 8091 0000 		lds r24,encoderValue
 5383 2a1c 8150      		subi r24,lo8(-(-1))
 5384 2a1e 00C0      		rjmp .L337
 5385               	.L275:
 5386               	.LM721:
 5387 2a20 8823      		tst r24
 5388 2a22 01F4      		brne .L270
 5389               	.L339:
 5390               	.LM722:
 5391 2a24 8091 0000 		lds r24,encoderValue
 5392 2a28 8F5F      		subi r24,lo8(-(1))
 5393               	.L337:
 5394 2a2a 8093 0000 		sts encoderValue,r24
 5395               	.L270:
 5396               	.LM723:
 5397 2a2e 9093 0000 		sts lastEncoderState.2417,r25
 5398               	.L267:
 5399               	.LBE222:
 5400               	.LBE221:
 5401               	.LM724:
 5402 2a32 0E94 0000 		call HandleSoftclock
 5403               	.LBB223:
 5404               	.LBB191:
 5405               	.LM725:
 5406 2a36 8091 0000 		lds r24,ledBlinkMask
 5407 2a3a 8823      		tst r24
 5408 2a3c 01F4      		brne .+2
 5409 2a3e 00C0      		rjmp .L276
 5410               	.LBE191:
 5411 2a40 82E0      		ldi r24,lo8(2)
 5412 2a42 0E94 0000 		call CheckTimer
 5413               	.LBB192:
 5414 2a46 8823      		tst r24
 5415 2a48 01F4      		brne .+2
 5416 2a4a 00C0      		rjmp .L276
 5417               	.LM726:
 5418 2a4c 8091 0000 		lds r24,ledBlinkMask
 5419 2a50 682F      		mov r22,r24
 5420 2a52 70E0      		ldi r23,lo8(0)
 5421               	.LM727:
 5422 2a54 E091 0000 		lds r30,toggle.2345
 5423 2a58 5091 0000 		lds r21,ledOnOffMask
 5424 2a5c 20E0      		ldi r18,lo8(0)
 5425 2a5e 30E0      		ldi r19,hi8(0)
 5426               	.L279:
 5427               	.LBE192:
 5428               	.LM728:
 5429 2a60 CB01      		movw r24,r22
 5430 2a62 022E      		mov r0,r18
 5431 2a64 00C0      		rjmp 2f
 5432 2a66 9595      	1:	asr r25
 5433 2a68 8795      		ror r24
 5434 2a6a 0A94      	2:	dec r0
 5435 2a6c 02F4      		brpl 1b
 5436 2a6e 80FF      		sbrs r24,0
 5437 2a70 00C0      		rjmp .L277
 5438               	.LBB193:
 5439               	.LM729:
 5440 2a72 EE23      		tst r30
 5441 2a74 01F0      		breq .L278
 5442               	.LM730:
 5443 2a76 C401      		movw r24,r8
 5444 2a78 022E      		mov r0,r18
 5445 2a7a 00C0      		rjmp 2f
 5446 2a7c 880F      	1:	lsl r24
 5447 2a7e 991F      		rol r25
 5448 2a80 0A94      	2:	dec r0
 5449 2a82 02F4      		brpl 1b
 5450 2a84 582B      		or r21,r24
 5451 2a86 00C0      		rjmp .L277
 5452               	.L278:
 5453               	.LM731:
 5454 2a88 C401      		movw r24,r8
 5455 2a8a 022E      		mov r0,r18
 5456 2a8c 00C0      		rjmp 2f
 5457 2a8e 880F      	1:	lsl r24
 5458 2a90 991F      		rol r25
 5459 2a92 0A94      	2:	dec r0
 5460 2a94 02F4      		brpl 1b
 5461 2a96 8095      		com r24
 5462 2a98 5823      		and r21,r24
 5463               	.L277:
 5464 2a9a 2F5F      		subi r18,lo8(-(1))
 5465 2a9c 3F4F      		sbci r19,hi8(-(1))
 5466               	.LM732:
 5467 2a9e 2830      		cpi r18,8
 5468 2aa0 3105      		cpc r19,__zero_reg__
 5469 2aa2 01F4      		brne .L279
 5470 2aa4 5093 0000 		sts ledOnOffMask,r21
 5471               	.LM733:
 5472 2aa8 1092 0000 		sts toggle.2345,__zero_reg__
 5473 2aac EE23      		tst r30
 5474 2aae 01F4      		brne .L280
 5475 2ab0 81E0      		ldi r24,lo8(1)
 5476 2ab2 8093 0000 		sts toggle.2345,r24
 5477               	.L280:
 5478               	.LM734:
 5479 2ab6 82E0      		ldi r24,lo8(2)
 5480 2ab8 68E9      		ldi r22,lo8(152)
 5481 2aba 70E0      		ldi r23,hi8(152)
 5482 2abc 0E94 0000 		call SetTimer
 5483               	.LM735:
 5484 2ac0 8091 0000 		lds r24,ledOnOffMask
 5485               	.LBB187:
 5486               	.LBB188:
 5487               	.LM736:
 5488 2ac4 9FB7      		in r25,__SREG__
 5489               	.LVL107:
 5490               	.LM737:
 5491               	/* #APP */
 5492               	 ;  1338 "WTPA.c" 1
 5493 2ac6 F894      		cli
 5494               	 ;  0 "" 2
 5495               	.LM738:
 5496               	/* #NOAPP */
 5497 2ac8 85B9      		out 37-32,r24
 5498               	.LM739:
 5499 2aca F4B8      		out 36-32,r15
 5500               	.LM740:
 5501 2acc 5F9A      		sbi 43-32,7
 5502               	.LM741:
 5503 2ace 5F98      		cbi 43-32,7
 5504               	.LM742:
 5505 2ad0 9FBF      		out __SREG__,r25
 5506 2ad2 00C0      		rjmp .L281
 5507               	.LVL108:
 5508               	.L276:
 5509               	.LBE188:
 5510               	.LBE187:
 5511               	.LM743:
 5512 2ad4 9091 0000 		lds r25,ledOnOffMask
 5513 2ad8 8091 0000 		lds r24,lastLedMask.2346
 5514 2adc 8917      		cp r24,r25
 5515 2ade 01F0      		breq .L281
 5516               	.LBB189:
 5517               	.LBB190:
 5518               	.LM744:
 5519 2ae0 8FB7      		in r24,__SREG__
 5520               	.LVL109:
 5521               	.LM745:
 5522               	/* #APP */
 5523               	 ;  1338 "WTPA.c" 1
 5524 2ae2 F894      		cli
 5525               	 ;  0 "" 2
 5526               	.LM746:
 5527               	/* #NOAPP */
 5528 2ae4 95B9      		out 37-32,r25
 5529               	.LM747:
 5530 2ae6 F4B8      		out 36-32,r15
 5531               	.LM748:
 5532 2ae8 5F9A      		sbi 43-32,7
 5533               	.LM749:
 5534 2aea 5F98      		cbi 43-32,7
 5535               	.LM750:
 5536 2aec 8FBF      		out __SREG__,r24
 5537               	.LBE190:
 5538               	.LBE189:
 5539               	.LM751:
 5540 2aee 8091 0000 		lds r24,ledOnOffMask
 5541               	.LVL110:
 5542 2af2 8093 0000 		sts lastLedMask.2346,r24
 5543               	.LVL111:
 5544               	.L281:
 5545               	.LBE193:
 5546               	.LBE223:
 5547               	.LBB224:
 5548               	.LBB210:
 5549               	.LM752:
 5550 2af6 8091 0000 		lds r24,cardDetect
 5551 2afa 9091 0000 		lds r25,cardState
 5552               	.LVL112:
 5553 2afe 8823      		tst r24
 5554 2b00 01F4      		brne .L282
 5555               	.LM753:
 5556 2b02 9923      		tst r25
 5557 2b04 01F4      		brne .+2
 5558 2b06 00C0      		rjmp .L283
 5559 2b08 00C0      		rjmp .L315
 5560               	.L282:
 5561               	.LM754:
 5562 2b0a 9130      		cpi r25,lo8(1)
 5563 2b0c 01F0      		breq .L285
 5564 2b0e 9130      		cpi r25,lo8(1)
 5565 2b10 00F0      		brlo .L284
 5566 2b12 9530      		cpi r25,lo8(5)
 5567 2b14 01F4      		brne .+2
 5568 2b16 00C0      		rjmp .L286
 5569 2b18 9630      		cpi r25,lo8(6)
 5570 2b1a 01F0      		breq .+2
 5571 2b1c 00C0      		rjmp .L283
 5572 2b1e 00C0      		rjmp .L340
 5573               	.L284:
 5574               	.LM755:
 5575 2b20 81E0      		ldi r24,lo8(1)
 5576 2b22 8093 0000 		sts cardState,r24
 5577               	.LM756:
 5578 2b26 83E0      		ldi r24,lo8(3)
 5579 2b28 64EC      		ldi r22,lo8(1220)
 5580 2b2a 74E0      		ldi r23,hi8(1220)
 5581 2b2c 0E94 0000 		call SetTimer
 5582 2b30 00C0      		rjmp .L283
 5583               	.L285:
 5584               	.LBE210:
 5585               	.LM757:
 5586 2b32 83E0      		ldi r24,lo8(3)
 5587 2b34 0E94 0000 		call CheckTimer
 5588               	.LBB211:
 5589 2b38 8823      		tst r24
 5590 2b3a 01F4      		brne .+2
 5591 2b3c 00C0      		rjmp .L283
 5592               	.LBE211:
 5593               	.LM758:
 5594 2b3e 0E94 0000 		call SdHandshake
 5595               	.LBB212:
 5596 2b42 8130      		cpi r24,lo8(1)
 5597 2b44 01F0      		breq .+2
 5598 2b46 00C0      		rjmp .L288
 5599               	.LBB199:
 5600               	.LM759:
 5601 2b48 60E0      		ldi r22,lo8(0)
 5602 2b4a 70E0      		ldi r23,hi8(0)
 5603 2b4c 80E0      		ldi r24,hlo8(0)
 5604 2b4e 90E0      		ldi r25,hhi8(0)
 5605 2b50 0E94 0000 		call SdBeginSingleBlockRead
 5606               	.LBB200:
 5607 2b54 8130      		cpi r24,lo8(1)
 5608 2b56 01F0      		breq .L289
 5609 2b58 10E0      		ldi r17,lo8(0)
 5610               	.LVL113:
 5611 2b5a 00C0      		rjmp .L326
 5612               	.LVL114:
 5613               	.L289:
 5614               	.LM760:
 5615 2b5c 83E0      		ldi r24,lo8(3)
 5616 2b5e 6AE7      		ldi r22,lo8(122)
 5617 2b60 70E0      		ldi r23,hi8(122)
 5618 2b62 0E94 0000 		call SetTimer
 5619 2b66 00C0      		rjmp .L291
 5620               	.L293:
 5621               	.LM761:
 5622 2b68 0E94 0000 		call HandleSoftclock
 5623               	.L291:
 5624               	.LBE200:
 5625               	.LM762:
 5626 2b6c 83E0      		ldi r24,lo8(3)
 5627 2b6e 0E94 0000 		call CheckTimer
 5628               	.LBB201:
 5629 2b72 8823      		tst r24
 5630 2b74 01F4      		brne .L292
 5631               	.LBE201:
 5632 2b76 8FEF      		ldi r24,lo8(-1)
 5633 2b78 0E94 0000 		call TransferSdByte
 5634               	.LBB202:
 5635 2b7c 8E3F      		cpi r24,lo8(-2)
 5636 2b7e 01F4      		brne .L293
 5637               	.L292:
 5638               	.LBE202:
 5639               	.LM763:
 5640 2b80 8FEF      		ldi r24,lo8(-1)
 5641 2b82 0E94 0000 		call TransferSdByte
 5642 2b86 082F      		mov r16,r24
 5643               	.LM764:
 5644 2b88 8FEF      		ldi r24,lo8(-1)
 5645 2b8a 0E94 0000 		call TransferSdByte
 5646               	.LBB203:
 5647               	.LM765:
 5648 2b8e 8435      		cpi r24,lo8(84)
 5649 2b90 01F0      		breq .L294
 5650 2b92 10E0      		ldi r17,lo8(0)
 5651               	.LVL115:
 5652 2b94 00C0      		rjmp .L295
 5653               	.LVL116:
 5654               	.L294:
 5655 2b96 10E0      		ldi r17,lo8(0)
 5656               	.LVL117:
 5657 2b98 0735      		cpi r16,lo8(87)
 5658 2b9a 01F4      		brne .L295
 5659 2b9c 11E0      		ldi r17,lo8(1)
 5660               	.L295:
 5661               	.LBE203:
 5662               	.LM766:
 5663 2b9e 8FEF      		ldi r24,lo8(-1)
 5664 2ba0 0E94 0000 		call TransferSdByte
 5665               	.LBB204:
 5666               	.LM767:
 5667 2ba4 8035      		cpi r24,lo8(80)
 5668 2ba6 01F0      		breq .L297
 5669 2ba8 10E0      		ldi r17,lo8(0)
 5670               	.L297:
 5671               	.LBE204:
 5672               	.LM768:
 5673 2baa 8FEF      		ldi r24,lo8(-1)
 5674 2bac 0E94 0000 		call TransferSdByte
 5675               	.LBB205:
 5676               	.LM769:
 5677 2bb0 8134      		cpi r24,lo8(65)
 5678 2bb2 01F0      		breq .L298
 5679 2bb4 10E0      		ldi r17,lo8(0)
 5680               	.L298:
 5681 2bb6 C0E0      		ldi r28,lo8(0)
 5682 2bb8 D0E0      		ldi r29,hi8(0)
 5683               	.LVL118:
 5684               	.L299:
 5685               	.LM770:
 5686 2bba 8FEF      		ldi r24,lo8(-1)
 5687 2bbc 0E94 0000 		call TransferSdByte
 5688               	.LM771:
 5689 2bc0 2196      		adiw r28,1
 5690 2bc2 CC30      		cpi r28,12
 5691 2bc4 D105      		cpc r29,__zero_reg__
 5692 2bc6 01F4      		brne .L299
 5693               	.LM772:
 5694 2bc8 1130      		cpi r17,lo8(1)
 5695 2bca 01F4      		brne .L300
 5696 2bcc C0E0      		ldi r28,lo8(sampleToc)
 5697 2bce D0E0      		ldi r29,hi8(sampleToc)
 5698               	.LVL119:
 5699               	.L301:
 5700               	.LBE205:
 5701               	.LM773:
 5702 2bd0 8FEF      		ldi r24,lo8(-1)
 5703 2bd2 0E94 0000 		call TransferSdByte
 5704               	.LBB206:
 5705 2bd6 8993      		st Y+,r24
 5706               	.LM774:
 5707 2bd8 80E0      		ldi r24,hi8(sampleToc+64)
 5708 2bda C030      		cpi r28,lo8(sampleToc+64)
 5709 2bdc D807      		cpc r29,r24
 5710 2bde 01F4      		brne .L301
 5711 2be0 00C0      		rjmp .L302
 5712               	.LVL120:
 5713               	.L300:
 5714 2be2 C0E0      		ldi r28,lo8(0)
 5715 2be4 D0E0      		ldi r29,hi8(0)
 5716               	.LVL121:
 5717               	.L303:
 5718               	.LM775:
 5719 2be6 8FEF      		ldi r24,lo8(-1)
 5720 2be8 0E94 0000 		call TransferSdByte
 5721               	.LM776:
 5722 2bec 2196      		adiw r28,1
 5723 2bee C034      		cpi r28,64
 5724 2bf0 D105      		cpc r29,__zero_reg__
 5725 2bf2 01F4      		brne .L303
 5726               	.L302:
 5727 2bf4 C0E0      		ldi r28,lo8(0)
 5728 2bf6 D0E0      		ldi r29,hi8(0)
 5729               	.LVL122:
 5730               	.L304:
 5731               	.LM777:
 5732 2bf8 8FEF      		ldi r24,lo8(-1)
 5733 2bfa 0E94 0000 		call TransferSdByte
 5734               	.LM778:
 5735 2bfe 2196      		adiw r28,1
 5736 2c00 81E0      		ldi r24,hi8(434)
 5737 2c02 C23B      		cpi r28,lo8(434)
 5738 2c04 D807      		cpc r29,r24
 5739 2c06 01F4      		brne .L304
 5740               	.LVL123:
 5741               	.L326:
 5742               	.LM779:
 5743 2c08 8091 C800 		lds r24,200
 5744 2c0c 86FF      		sbrs r24,6
 5745 2c0e 00C0      		rjmp .L326
 5746               	.LM780:
 5747 2c10 0E94 0000 		call EndSdTransfer
 5748               	.LM781:
 5749 2c14 8FEF      		ldi r24,lo8(-1)
 5750 2c16 0E94 0000 		call TransferSdByte
 5751               	.LBE206:
 5752               	.LBE199:
 5753               	.LM782:
 5754 2c1a 1130      		cpi r17,lo8(1)
 5755 2c1c 01F4      		brne .L305
 5756               	.LM783:
 5757 2c1e 3092 0000 		sts cardState,r3
 5758 2c22 00C0      		rjmp .L283
 5759               	.L305:
 5760               	.LM784:
 5761 2c24 E092 0000 		sts cardState,r14
 5762 2c28 E0E0      		ldi r30,lo8(sampleToc)
 5763 2c2a F0E0      		ldi r31,hi8(sampleToc)
 5764               	.L306:
 5765               	.LBB207:
 5766               	.LBB208:
 5767               	.LM785:
 5768 2c2c 1192      		st Z+,__zero_reg__
 5769               	.LM786:
 5770 2c2e 80E0      		ldi r24,hi8(sampleToc+64)
 5771 2c30 E030      		cpi r30,lo8(sampleToc+64)
 5772 2c32 F807      		cpc r31,r24
 5773 2c34 01F4      		brne .L306
 5774               	.LBE208:
 5775               	.LBE207:
 5776               	.LBB209:
 5777               	.LBB198:
 5778               	.LM787:
 5779 2c36 7092 0000 		sts (State)+1,r7
 5780 2c3a 6092 0000 		sts State,r6
 5781               	.LM788:
 5782 2c3e 1092 0000 		sts subState,__zero_reg__
 5783 2c42 00C0      		rjmp .L283
 5784               	.LVL124:
 5785               	.L288:
 5786               	.LBE198:
 5787               	.LBE209:
 5788               	.LM789:
 5789 2c44 E092 0000 		sts cardState,r14
 5790 2c48 00C0      		rjmp .L283
 5791               	.L286:
 5792               	.LBE212:
 5793               	.LM790:
 5794 2c4a 60E0      		ldi r22,lo8(0)
 5795 2c4c 70E0      		ldi r23,hi8(0)
 5796 2c4e 80E0      		ldi r24,hlo8(0)
 5797 2c50 90E0      		ldi r25,hhi8(0)
 5798 2c52 0E94 0000 		call SdBeginSingleBlockWrite
 5799               	.LBB213:
 5800 2c56 8130      		cpi r24,lo8(1)
 5801 2c58 01F0      		breq .+2
 5802 2c5a 00C0      		rjmp .L315
 5803               	.LM791:
 5804 2c5c 5092 0000 		sts (bytesLeftInBlock.2558)+1,r5
 5805 2c60 4092 0000 		sts bytesLeftInBlock.2558,r4
 5806               	.LM792:
 5807 2c64 8FEF      		ldi r24,lo8(-1)
 5808 2c66 0E94 0000 		call TransferSdByte
 5809               	.LM793:
 5810 2c6a 8FEF      		ldi r24,lo8(-1)
 5811 2c6c 0E94 0000 		call TransferSdByte
 5812               	.LM794:
 5813 2c70 8EEF      		ldi r24,lo8(-2)
 5814 2c72 0E94 0000 		call TransferSdByte
 5815               	.LM795:
 5816 2c76 87E5      		ldi r24,lo8(87)
 5817 2c78 0E94 0000 		call TransferSdByte
 5818               	.LM796:
 5819 2c7c 84E5      		ldi r24,lo8(84)
 5820 2c7e 0E94 0000 		call TransferSdByte
 5821               	.LM797:
 5822 2c82 80E5      		ldi r24,lo8(80)
 5823 2c84 0E94 0000 		call TransferSdByte
 5824               	.LM798:
 5825 2c88 81E4      		ldi r24,lo8(65)
 5826 2c8a 0E94 0000 		call TransferSdByte
 5827               	.LM799:
 5828 2c8e 8091 0000 		lds r24,bytesLeftInBlock.2558
 5829 2c92 9091 0000 		lds r25,(bytesLeftInBlock.2558)+1
 5830 2c96 0497      		sbiw r24,4
 5831 2c98 9093 0000 		sts (bytesLeftInBlock.2558)+1,r25
 5832 2c9c 8093 0000 		sts bytesLeftInBlock.2558,r24
 5833 2ca0 10E0      		ldi r17,lo8(0)
 5834               	.LVL125:
 5835               	.L308:
 5836               	.LM800:
 5837 2ca2 88E7      		ldi r24,lo8(120)
 5838 2ca4 0E94 0000 		call TransferSdByte
 5839               	.LM801:
 5840 2ca8 1F5F      		subi r17,lo8(-(1))
 5841 2caa 1C30      		cpi r17,lo8(12)
 5842 2cac 01F4      		brne .L308
 5843               	.LM802:
 5844 2cae 8091 0000 		lds r24,bytesLeftInBlock.2558
 5845 2cb2 9091 0000 		lds r25,(bytesLeftInBlock.2558)+1
 5846 2cb6 0C97      		sbiw r24,12
 5847 2cb8 9093 0000 		sts (bytesLeftInBlock.2558)+1,r25
 5848 2cbc 8093 0000 		sts bytesLeftInBlock.2558,r24
 5849 2cc0 C0E0      		ldi r28,lo8(sampleToc)
 5850 2cc2 D0E0      		ldi r29,hi8(sampleToc)
 5851               	.LVL126:
 5852               	.L309:
 5853               	.LM803:
 5854 2cc4 8991      		ld r24,Y+
 5855 2cc6 0E94 0000 		call TransferSdByte
 5856               	.LM804:
 5857 2cca 80E0      		ldi r24,hi8(sampleToc+64)
 5858 2ccc C030      		cpi r28,lo8(sampleToc+64)
 5859 2cce D807      		cpc r29,r24
 5860 2cd0 01F4      		brne .L309
 5861               	.LM805:
 5862 2cd2 8091 0000 		lds r24,bytesLeftInBlock.2558
 5863 2cd6 9091 0000 		lds r25,(bytesLeftInBlock.2558)+1
 5864 2cda 8054      		subi r24,lo8(-(-64))
 5865 2cdc 9040      		sbci r25,hi8(-(-64))
 5866 2cde 9093 0000 		sts (bytesLeftInBlock.2558)+1,r25
 5867 2ce2 8093 0000 		sts bytesLeftInBlock.2558,r24
 5868               	.LM806:
 5869 2ce6 81E0      		ldi r24,lo8(1)
 5870 2ce8 8093 0000 		sts cardReadyForTransfer,r24
 5871               	.LM807:
 5872 2cec 2092 0000 		sts cardState,r2
 5873 2cf0 00C0      		rjmp .L283
 5874               	.LVL127:
 5875               	.L340:
 5876               	.LM808:
 5877 2cf2 8091 0000 		lds r24,cardReadyForTransfer
 5878 2cf6 8823      		tst r24
 5879 2cf8 01F0      		breq .L310
 5880 2cfa C091 0000 		lds r28,bytesLeftInBlock.2558
 5881 2cfe D091 0000 		lds r29,(bytesLeftInBlock.2558)+1
 5882               	.LVL128:
 5883 2d02 C134      		cpi r28,65
 5884 2d04 D105      		cpc r29,__zero_reg__
 5885 2d06 00F0      		brlo .L311
 5886 2d08 C0E4      		ldi r28,lo8(64)
 5887 2d0a D0E0      		ldi r29,hi8(64)
 5888               	.L311:
 5889 2d0c 10E0      		ldi r17,lo8(0)
 5890               	.LVL129:
 5891 2d0e 00C0      		rjmp .L312
 5892               	.LVL130:
 5893               	.L313:
 5894               	.LM809:
 5895 2d10 8FEF      		ldi r24,lo8(-1)
 5896               	.LVL131:
 5897 2d12 0E94 0000 		call TransferSdByte
 5898               	.LVL132:
 5899               	.LM810:
 5900 2d16 8091 0000 		lds r24,bytesLeftInBlock.2558
 5901 2d1a 9091 0000 		lds r25,(bytesLeftInBlock.2558)+1
 5902 2d1e 0197      		sbiw r24,1
 5903 2d20 9093 0000 		sts (bytesLeftInBlock.2558)+1,r25
 5904 2d24 8093 0000 		sts bytesLeftInBlock.2558,r24
 5905               	.LM811:
 5906 2d28 1F5F      		subi r17,lo8(-(1))
 5907               	.L312:
 5908 2d2a 812F      		mov r24,r17
 5909 2d2c 90E0      		ldi r25,lo8(0)
 5910               	.LVL133:
 5911 2d2e 8C17      		cp r24,r28
 5912 2d30 9D07      		cpc r25,r29
 5913 2d32 00F0      		brlo .L313
 5914               	.LVL134:
 5915               	.LM812:
 5916 2d34 8091 0000 		lds r24,bytesLeftInBlock.2558
 5917 2d38 9091 0000 		lds r25,(bytesLeftInBlock.2558)+1
 5918               	.LVL135:
 5919 2d3c 892B      		or r24,r25
 5920 2d3e 01F4      		brne .L283
 5921               	.LM813:
 5922 2d40 8FEF      		ldi r24,lo8(-1)
 5923 2d42 0E94 0000 		call TransferSdByte
 5924               	.LVL136:
 5925               	.LM814:
 5926 2d46 8FEF      		ldi r24,lo8(-1)
 5927 2d48 0E94 0000 		call TransferSdByte
 5928               	.LBE213:
 5929               	.LM815:
 5930 2d4c 8FEF      		ldi r24,lo8(-1)
 5931 2d4e 0E94 0000 		call TransferSdByte
 5932               	.LBB214:
 5933               	.LM816:
 5934 2d52 8F71      		andi r24,lo8(31)
 5935 2d54 8530      		cpi r24,lo8(5)
 5936 2d56 01F4      		brne .L315
 5937               	.LM817:
 5938 2d58 83E0      		ldi r24,lo8(3)
 5939 2d5a 62E6      		ldi r22,lo8(610)
 5940 2d5c 72E0      		ldi r23,hi8(610)
 5941 2d5e 0E94 0000 		call SetTimer
 5942               	.LM818:
 5943 2d62 1092 0000 		sts cardReadyForTransfer,__zero_reg__
 5944 2d66 00C0      		rjmp .L283
 5945               	.LVL137:
 5946               	.L310:
 5947               	.LBE214:
 5948               	.LM819:
 5949 2d68 83E0      		ldi r24,lo8(3)
 5950 2d6a 0E94 0000 		call CheckTimer
 5951               	.LBB215:
 5952 2d6e 8823      		tst r24
 5953 2d70 01F4      		brne .L315
 5954 2d72 10E0      		ldi r17,lo8(0)
 5955               	.LVL138:
 5956               	.LM820:
 5957 2d74 01E0      		ldi r16,lo8(1)
 5958               	.LVL139:
 5959 2d76 00C0      		rjmp .L316
 5960               	.L320:
 5961               	.LBE215:
 5962               	.LM821:
 5963 2d78 8FEF      		ldi r24,lo8(-1)
 5964 2d7a 0E94 0000 		call TransferSdByte
 5965               	.LBB216:
 5966 2d7e 8F3F      		cpi r24,lo8(-1)
 5967 2d80 01F0      		breq .L317
 5968               	.LM822:
 5969 2d82 1F5F      		subi r17,lo8(-(1))
 5970 2d84 00C0      		rjmp .L318
 5971               	.L317:
 5972               	.LM823:
 5973 2d86 0E94 0000 		call EndSdTransfer
 5974               	.LM824:
 5975 2d8a 8FEF      		ldi r24,lo8(-1)
 5976 2d8c 0E94 0000 		call TransferSdByte
 5977               	.L319:
 5978               	.LM825:
 5979 2d90 8091 C800 		lds r24,200
 5980 2d94 86FF      		sbrs r24,6
 5981 2d96 00C0      		rjmp .L319
 5982               	.LM826:
 5983 2d98 0093 0000 		sts cardReadyForTransfer,r16
 5984               	.LM827:
 5985 2d9c 3092 0000 		sts cardState,r3
 5986               	.L318:
 5987               	.LM828:
 5988 2da0 1430      		cpi r17,lo8(4)
 5989 2da2 00F4      		brsh .L283
 5990               	.L316:
 5991 2da4 8091 0000 		lds r24,cardReadyForTransfer
 5992 2da8 8823      		tst r24
 5993 2daa 01F0      		breq .L320
 5994 2dac 00C0      		rjmp .L283
 5995               	.LVL140:
 5996               	.L315:
 5997               	.LM829:
 5998 2dae 1092 0000 		sts cardState,__zero_reg__
 5999               	.LVL141:
 6000               	.L283:
 6001               	.LBE216:
 6002               	.LBE224:
 6003               	.LBB225:
 6004               	.LBB219:
 6005               	.LM830:
 6006 2db2 8091 0000 		lds r24,random31
 6007 2db6 9091 0000 		lds r25,(random31)+1
 6008 2dba A091 0000 		lds r26,(random31)+2
 6009 2dbe B091 0000 		lds r27,(random31)+3
 6010 2dc2 880F      		lsl r24
 6011 2dc4 991F      		rol r25
 6012 2dc6 AA1F      		rol r26
 6013 2dc8 BB1F      		rol r27
 6014 2dca 8093 0000 		sts random31,r24
 6015 2dce 9093 0000 		sts (random31)+1,r25
 6016 2dd2 A093 0000 		sts (random31)+2,r26
 6017 2dd6 B093 0000 		sts (random31)+3,r27
 6018               	.LM831:
 6019 2dda B7FF      		sbrs r27,7
 6020 2ddc 00C0      		rjmp .L321
 6021               	.LM832:
 6022 2dde 8A25      		eor r24,r10
 6023 2de0 9B25      		eor r25,r11
 6024 2de2 AC25      		eor r26,r12
 6025 2de4 BD25      		eor r27,r13
 6026 2de6 8093 0000 		sts random31,r24
 6027 2dea 9093 0000 		sts (random31)+1,r25
 6028 2dee A093 0000 		sts (random31)+2,r26
 6029 2df2 B093 0000 		sts (random31)+3,r27
 6030               	.L321:
 6031               	.LBE219:
 6032               	.LBE225:
 6033               	.LM833:
 6034 2df6 0E94 0000 		call Uart0GotByte
 6035               	.LVL142:
 6036 2dfa 8823      		tst r24
 6037 2dfc 01F0      		breq .L322
 6038               	.LM834:
 6039 2dfe 0E94 0000 		call Uart0GetByte
 6040 2e02 0E94 0000 		call HandleIncomingMidiByte
 6041               	.L322:
 6042               	.LM835:
 6043 2e06 0E94 0000 		call MidiTxBufferNotEmpty
 6044 2e0a 8823      		tst r24
 6045 2e0c 01F0      		breq .L323
 6046               	.LM836:
 6047 2e0e 8091 C000 		lds r24,192
 6048 2e12 85FF      		sbrs r24,5
 6049 2e14 00C0      		rjmp .L323
 6050               	.LM837:
 6051 2e16 0E94 0000 		call PopOutgoingMidiByte
 6052 2e1a 8093 C600 		sts 198,r24
 6053               	.L323:
 6054               	.LM838:
 6055 2e1e E091 0000 		lds r30,State
 6056 2e22 F091 0000 		lds r31,(State)+1
 6057 2e26 0995      		icall
 6058 2e28 00C0      		rjmp .L324
 6059               	.LFE64:
 6062               	GetMidiChannel:
 6063               	.LFB48:
 6064               	.LM839:
 6065               	.LVL143:
 6066 2e2a 1F93      		push r17
 6067               	/* prologue: function */
 6068               	/* frame size = 0 */
 6069 2e2c 182F      		mov r17,r24
 6070               	.LM840:
 6071 2e2e 8823      		tst r24
 6072 2e30 01F4      		brne .L342
 6073               	.LM841:
 6074 2e32 84E0      		ldi r24,lo8(4)
 6075               	.LVL144:
 6076 2e34 00C0      		rjmp .L348
 6077               	.LVL145:
 6078               	.L342:
 6079               	.LM842:
 6080 2e36 8130      		cpi r24,lo8(1)
 6081 2e38 01F0      		breq .L344
 6082 2e3a 80E0      		ldi r24,lo8(0)
 6083               	.LVL146:
 6084 2e3c 00C0      		rjmp .L345
 6085               	.LVL147:
 6086               	.L344:
 6087               	.LM843:
 6088 2e3e 88E0      		ldi r24,lo8(8)
 6089               	.LVL148:
 6090               	.L348:
 6091 2e40 0E94 0000 		call EepromRead
 6092               	.LM844:
 6093 2e44 8031      		cpi r24,lo8(16)
 6094               	.LVL149:
 6095 2e46 00F0      		brlo .L345
 6096 2e48 812F      		mov r24,r17
 6097               	.LVL150:
 6098 2e4a 1111      		cpse r17,__zero_reg__
 6099 2e4c 81E0      		ldi r24,lo8(1)
 6100               	.LVL151:
 6101               	.L345:
 6102               	.LVL152:
 6103               	/* epilogue start */
 6104               	.LM845:
 6105 2e4e 1F91      		pop r17
 6106               	.LVL153:
 6107 2e50 0895      		ret
 6108               	.LFE48:
 6111               	DoSampler:
 6112               	.LFB59:
 6113               	.LM846:
 6114 2e52 CF92      		push r12
 6115 2e54 DF92      		push r13
 6116 2e56 EF92      		push r14
 6117 2e58 FF92      		push r15
 6118 2e5a 0F93      		push r16
 6119 2e5c 1F93      		push r17
 6120 2e5e CF93      		push r28
 6121 2e60 DF93      		push r29
 6122               	/* prologue: function */
 6123               	/* frame size = 0 */
 6124               	.LM847:
 6125 2e62 1091 0000 		lds r17,subState
 6126 2e66 1123      		tst r17
 6127 2e68 01F0      		breq .+2
 6128 2e6a 00C0      		rjmp .L350
 6129               	.LM848:
 6130 2e6c 80E0      		ldi r24,lo8(0)
 6131 2e6e 0E94 0000 		call GetMidiChannel
 6132 2e72 8093 0000 		sts midiChannelNumberA,r24
 6133               	.LM849:
 6134 2e76 81E0      		ldi r24,lo8(1)
 6135 2e78 0E94 0000 		call GetMidiChannel
 6136 2e7c 8093 0000 		sts midiChannelNumberB,r24
 6137               	.LM850:
 6138 2e80 1092 0000 		sts bankStates+15,__zero_reg__
 6139 2e84 1092 0000 		sts (bankStates+15)+1,__zero_reg__
 6140 2e88 1092 0000 		sts (bankStates+15)+2,__zero_reg__
 6141 2e8c 1092 0000 		sts (bankStates+15)+3,__zero_reg__
 6142               	.LM851:
 6143 2e90 8FEF      		ldi r24,lo8(524287)
 6144 2e92 9FEF      		ldi r25,hi8(524287)
 6145 2e94 A7E0      		ldi r26,hlo8(524287)
 6146 2e96 B0E0      		ldi r27,hhi8(524287)
 6147 2e98 8093 0000 		sts bankStates+49,r24
 6148 2e9c 9093 0000 		sts (bankStates+49)+1,r25
 6149 2ea0 A093 0000 		sts (bankStates+49)+2,r26
 6150 2ea4 B093 0000 		sts (bankStates+49)+3,r27
 6151 2ea8 00E0      		ldi r16,lo8(theMidiRecordRate)
 6152 2eaa 10E0      		ldi r17,hi8(theMidiRecordRate)
 6153 2eac C0E0      		ldi r28,lo8(0)
 6154 2eae D0E0      		ldi r29,hi8(0)
 6155               	.LM852:
 6156 2eb0 EE24      		clr r14
 6157 2eb2 E394      		inc r14
 6158               	.L354:
 6159               	.LM853:
 6160 2eb4 9E01      		movw r18,r28
 6161 2eb6 220F      		lsl r18
 6162 2eb8 331F      		rol r19
 6163 2eba CE01      		movw r24,r28
 6164 2ebc 45E0      		ldi r20,5
 6165 2ebe 880F      	1:	lsl r24
 6166 2ec0 991F      		rol r25
 6167 2ec2 4A95      		dec r20
 6168 2ec4 01F4      		brne 1b
 6169 2ec6 280F      		add r18,r24
 6170 2ec8 391F      		adc r19,r25
 6171 2eca 2050      		subi r18,lo8(-(bankStates))
 6172 2ecc 3040      		sbci r19,hi8(-(bankStates))
 6173 2ece F901      		movw r30,r18
 6174 2ed0 1082      		st Z,__zero_reg__
 6175               	.LM854:
 6176 2ed2 1086      		std Z+8,__zero_reg__
 6177               	.LM855:
 6178 2ed4 1182      		std Z+1,__zero_reg__
 6179               	.LM856:
 6180 2ed6 1782      		std Z+7,__zero_reg__
 6181               	.LM857:
 6182 2ed8 1682      		std Z+6,__zero_reg__
 6183               	.LM858:
 6184 2eda 1582      		std Z+5,__zero_reg__
 6185               	.LM859:
 6186 2edc FE01      		movw r30,r28
 6187 2ede 94E0      		ldi r25,4
 6188 2ee0 EE0F      	1:	lsl r30
 6189 2ee2 FF1F      		rol r31
 6190 2ee4 9A95      		dec r25
 6191 2ee6 01F4      		brne 1b
 6192 2ee8 EC0F      		add r30,r28
 6193 2eea FD1F      		adc r31,r29
 6194 2eec EE0F      		lsl r30
 6195 2eee FF1F      		rol r31
 6196 2ef0 E050      		subi r30,lo8(-(bankStates+2))
 6197 2ef2 F040      		sbci r31,hi8(-(bankStates+2))
 6198 2ef4 1082      		st Z,__zero_reg__
 6199               	.LM860:
 6200 2ef6 F901      		movw r30,r18
 6201 2ef8 E482      		std Z+4,r14
 6202               	.LM861:
 6203 2efa 1382      		std Z+3,__zero_reg__
 6204               	.LM862:
 6205 2efc 8785      		ldd r24,Z+15
 6206 2efe 9089      		ldd r25,Z+16
 6207 2f00 A189      		ldd r26,Z+17
 6208 2f02 B289      		ldd r27,Z+18
 6209 2f04 868F      		std Z+30,r24
 6210 2f06 978F      		std Z+31,r25
 6211 2f08 A0A3      		std Z+32,r26
 6212 2f0a B1A3      		std Z+33,r27
 6213               	.LM863:
 6214 2f0c 8785      		ldd r24,Z+15
 6215 2f0e 9089      		ldd r25,Z+16
 6216 2f10 A189      		ldd r26,Z+17
 6217 2f12 B289      		ldd r27,Z+18
 6218 2f14 8387      		std Z+11,r24
 6219 2f16 9487      		std Z+12,r25
 6220 2f18 A587      		std Z+13,r26
 6221 2f1a B687      		std Z+14,r27
 6222               	.LM864:
 6223 2f1c FE01      		movw r30,r28
 6224 2f1e E050      		subi r30,lo8(-(realtimeOn.3038))
 6225 2f20 F040      		sbci r31,hi8(-(realtimeOn.3038))
 6226 2f22 1082      		st Z,__zero_reg__
 6227               	.LM865:
 6228 2f24 1092 0000 		sts editModeEntered.3040,__zero_reg__
 6229               	.LBB226:
 6230               	.LBB227:
 6231               	.LM866:
 6232 2f28 4FB7      		in r20,__SREG__
 6233               	.LVL154:
 6234               	.LM867:
 6235               	/* #APP */
 6236               	 ;  3457 "WTPA.c" 1
 6237 2f2a F894      		cli
 6238               	 ;  0 "" 2
 6239               	.LM868:
 6240               	/* #NOAPP */
 6241 2f2c F901      		movw r30,r18
 6242 2f2e 8785      		ldd r24,Z+15
 6243 2f30 9089      		ldd r25,Z+16
 6244 2f32 A189      		ldd r26,Z+17
 6245 2f34 B289      		ldd r27,Z+18
 6246 2f36 878B      		std Z+23,r24
 6247 2f38 908F      		std Z+24,r25
 6248 2f3a A18F      		std Z+25,r26
 6249 2f3c B28F      		std Z+26,r27
 6250               	.LM869:
 6251 2f3e 8385      		ldd r24,Z+11
 6252 2f40 9485      		ldd r25,Z+12
 6253 2f42 A585      		ldd r26,Z+13
 6254 2f44 B685      		ldd r27,Z+14
 6255 2f46 838B      		std Z+19,r24
 6256 2f48 948B      		std Z+20,r25
 6257 2f4a A58B      		std Z+21,r26
 6258 2f4c B68B      		std Z+22,r27
 6259               	.LM870:
 6260 2f4e 138E      		std Z+27,__zero_reg__
 6261               	.LM871:
 6262 2f50 148E      		std Z+28,__zero_reg__
 6263               	.LM872:
 6264 2f52 158E      		std Z+29,__zero_reg__
 6265               	.LM873:
 6266 2f54 4FBF      		out __SREG__,r20
 6267               	.LBE227:
 6268               	.LBE226:
 6269               	.LBB228:
 6270               	.LBB229:
 6271               	.LM874:
 6272 2f56 CC23      		tst r28
 6273 2f58 01F4      		brne .L351
 6274               	.LBE229:
 6275               	.LM875:
 6276 2f5a 87E0      		ldi r24,lo8(7)
 6277 2f5c 00C0      		rjmp .L446
 6278               	.L351:
 6279               	.LM876:
 6280 2f5e 8BE0      		ldi r24,lo8(11)
 6281               	.L446:
 6282 2f60 0E94 0000 		call EepromRead
 6283               	.LVL155:
 6284               	.LBB230:
 6285               	.LM877:
 6286 2f64 8A35      		cpi r24,lo8(90)
 6287               	.LVL156:
 6288 2f66 00F0      		brlo .L353
 6289 2f68 80E3      		ldi r24,lo8(48)
 6290               	.L353:
 6291               	.LBE230:
 6292               	.LBE228:
 6293               	.LM878:
 6294 2f6a F801      		movw r30,r16
 6295 2f6c 8083      		st Z,r24
 6296 2f6e 1182      		std Z+1,__zero_reg__
 6297               	.LM879:
 6298 2f70 0E94 0000 		call GetPlaybackRateFromNote
 6299               	.LVL157:
 6300 2f74 F801      		movw r30,r16
 6301 2f76 8193      		st Z+,r24
 6302 2f78 9193      		st Z+,r25
 6303 2f7a 8F01      		movw r16,r30
 6304 2f7c 2196      		adiw r28,1
 6305               	.LM880:
 6306 2f7e C230      		cpi r28,2
 6307 2f80 D105      		cpc r29,__zero_reg__
 6308 2f82 01F0      		breq .+2
 6309 2f84 00C0      		rjmp .L354
 6310               	.LM881:
 6311 2f86 80E0      		ldi r24,lo8(gs(OutputAddBanks))
 6312 2f88 90E0      		ldi r25,hi8(gs(OutputAddBanks))
 6313 2f8a 9093 0000 		sts (UpdateOutput)+1,r25
 6314 2f8e 8093 0000 		sts UpdateOutput,r24
 6315               	.LM882:
 6316 2f92 1092 0000 		sts currentBank.3035,__zero_reg__
 6317               	.LM883:
 6318 2f96 0E94 0000 		call KillLeds
 6319               	.LM884:
 6320 2f9a 81E0      		ldi r24,lo8(1)
 6321 2f9c 8093 0000 		sts subState,r24
 6322 2fa0 0C94 0000 		jmp .L355
 6323               	.L350:
 6324               	.LM885:
 6325 2fa4 1130      		cpi r17,lo8(1)
 6326 2fa6 01F0      		breq .+4
 6327 2fa8 0C94 0000 		jmp .L355
 6328               	.LM886:
 6329 2fac 8091 0000 		lds r24,editModeEntered.3040
 6330 2fb0 9091 0000 		lds r25,keyState
 6331 2fb4 8823      		tst r24
 6332 2fb6 01F0      		breq .+2
 6333 2fb8 00C0      		rjmp .L356
 6334               	.LM887:
 6335 2fba 292F      		mov r18,r25
 6336 2fbc 30E0      		ldi r19,lo8(0)
 6337 2fbe 95FF      		sbrs r25,5
 6338 2fc0 00C0      		rjmp .L357
 6339               	.LM888:
 6340 2fc2 B901      		movw r22,r18
 6341 2fc4 6870      		andi r22,lo8(8)
 6342 2fc6 7070      		andi r23,hi8(8)
 6343 2fc8 93FF      		sbrs r25,3
 6344 2fca 00C0      		rjmp .L358
 6345 2fcc 8091 0000 		lds r24,newKeys
 6346 2fd0 84FD      		sbrc r24,4
 6347 2fd2 00C0      		rjmp .L359
 6348               	.L358:
 6349 2fd4 8091 0000 		lds r24,newKeys
 6350 2fd8 90E0      		ldi r25,lo8(0)
 6351 2fda AC01      		movw r20,r24
 6352 2fdc 4870      		andi r20,lo8(8)
 6353 2fde 5070      		andi r21,hi8(8)
 6354 2fe0 83FF      		sbrs r24,3
 6355 2fe2 00C0      		rjmp .L360
 6356 2fe4 24FF      		sbrs r18,4
 6357 2fe6 00C0      		rjmp .L360
 6358               	.L359:
 6359               	.LM889:
 6360 2fe8 80E0      		ldi r24,lo8(gs(OutputAddBanks))
 6361 2fea 90E0      		ldi r25,hi8(gs(OutputAddBanks))
 6362 2fec 9093 0000 		sts (UpdateOutput)+1,r25
 6363 2ff0 8093 0000 		sts UpdateOutput,r24
 6364               	.LM890:
 6365 2ff4 6091 0000 		lds r22,currentBank.3035
 6366               	.LBB231:
 6367               	.LBB232:
 6368               	.LM891:
 6369 2ff8 7FB7      		in r23,__SREG__
 6370               	.LVL158:
 6371               	.LM892:
 6372               	/* #APP */
 6373               	 ;  3457 "WTPA.c" 1
 6374 2ffa F894      		cli
 6375               	 ;  0 "" 2
 6376               	.LM893:
 6377               	/* #NOAPP */
 6378 2ffc 862F      		mov r24,r22
 6379 2ffe 90E0      		ldi r25,lo8(0)
 6380 3000 FC01      		movw r30,r24
 6381 3002 05E0      		ldi r16,5
 6382 3004 EE0F      	1:	lsl r30
 6383 3006 FF1F      		rol r31
 6384 3008 0A95      		dec r16
 6385 300a 01F4      		brne 1b
 6386 300c 880F      		lsl r24
 6387 300e 991F      		rol r25
 6388 3010 E80F      		add r30,r24
 6389 3012 F91F      		adc r31,r25
 6390 3014 E050      		subi r30,lo8(-(bankStates))
 6391 3016 F040      		sbci r31,hi8(-(bankStates))
 6392 3018 2785      		ldd r18,Z+15
 6393 301a 3089      		ldd r19,Z+16
 6394 301c 4189      		ldd r20,Z+17
 6395 301e 5289      		ldd r21,Z+18
 6396 3020 862F      		mov r24,r22
 6397 3022 90E0      		ldi r25,lo8(0)
 6398 3024 FC01      		movw r30,r24
 6399 3026 B5E0      		ldi r27,5
 6400 3028 EE0F      	1:	lsl r30
 6401 302a FF1F      		rol r31
 6402 302c BA95      		dec r27
 6403 302e 01F4      		brne 1b
 6404 3030 880F      		lsl r24
 6405 3032 991F      		rol r25
 6406 3034 E80F      		add r30,r24
 6407 3036 F91F      		adc r31,r25
 6408 3038 E050      		subi r30,lo8(-(bankStates))
 6409 303a F040      		sbci r31,hi8(-(bankStates))
 6410 303c 278B      		std Z+23,r18
 6411 303e 308F      		std Z+24,r19
 6412 3040 418F      		std Z+25,r20
 6413 3042 528F      		std Z+26,r21
 6414               	.LM894:
 6415 3044 862F      		mov r24,r22
 6416 3046 90E0      		ldi r25,lo8(0)
 6417 3048 FC01      		movw r30,r24
 6418 304a 05E0      		ldi r16,5
 6419 304c EE0F      	1:	lsl r30
 6420 304e FF1F      		rol r31
 6421 3050 0A95      		dec r16
 6422 3052 01F4      		brne 1b
 6423 3054 880F      		lsl r24
 6424 3056 991F      		rol r25
 6425 3058 E80F      		add r30,r24
 6426 305a F91F      		adc r31,r25
 6427 305c E050      		subi r30,lo8(-(bankStates))
 6428 305e F040      		sbci r31,hi8(-(bankStates))
 6429 3060 2385      		ldd r18,Z+11
 6430 3062 3485      		ldd r19,Z+12
 6431 3064 4585      		ldd r20,Z+13
 6432 3066 5685      		ldd r21,Z+14
 6433 3068 862F      		mov r24,r22
 6434 306a 90E0      		ldi r25,lo8(0)
 6435 306c FC01      		movw r30,r24
 6436 306e B5E0      		ldi r27,5
 6437 3070 EE0F      	1:	lsl r30
 6438 3072 FF1F      		rol r31
 6439 3074 BA95      		dec r27
 6440 3076 01F4      		brne 1b
 6441 3078 880F      		lsl r24
 6442 307a 991F      		rol r25
 6443 307c E80F      		add r30,r24
 6444 307e F91F      		adc r31,r25
 6445 3080 E050      		subi r30,lo8(-(bankStates))
 6446 3082 F040      		sbci r31,hi8(-(bankStates))
 6447 3084 238B      		std Z+19,r18
 6448 3086 348B      		std Z+20,r19
 6449 3088 458B      		std Z+21,r20
 6450 308a 568B      		std Z+22,r21
 6451               	.LM895:
 6452 308c 862F      		mov r24,r22
 6453 308e 90E0      		ldi r25,lo8(0)
 6454 3090 FC01      		movw r30,r24
 6455 3092 05E0      		ldi r16,5
 6456 3094 EE0F      	1:	lsl r30
 6457 3096 FF1F      		rol r31
 6458 3098 0A95      		dec r16
 6459 309a 01F4      		brne 1b
 6460 309c 880F      		lsl r24
 6461 309e 991F      		rol r25
 6462 30a0 E80F      		add r30,r24
 6463 30a2 F91F      		adc r31,r25
 6464 30a4 E050      		subi r30,lo8(-(bankStates))
 6465 30a6 F040      		sbci r31,hi8(-(bankStates))
 6466 30a8 138E      		std Z+27,__zero_reg__
 6467               	.LM896:
 6468 30aa 862F      		mov r24,r22
 6469 30ac 90E0      		ldi r25,lo8(0)
 6470 30ae FC01      		movw r30,r24
 6471 30b0 B5E0      		ldi r27,5
 6472 30b2 EE0F      	1:	lsl r30
 6473 30b4 FF1F      		rol r31
 6474 30b6 BA95      		dec r27
 6475 30b8 01F4      		brne 1b
 6476 30ba 880F      		lsl r24
 6477 30bc 991F      		rol r25
 6478 30be E80F      		add r30,r24
 6479 30c0 F91F      		adc r31,r25
 6480 30c2 E050      		subi r30,lo8(-(bankStates))
 6481 30c4 F040      		sbci r31,hi8(-(bankStates))
 6482 30c6 148E      		std Z+28,__zero_reg__
 6483               	.LM897:
 6484 30c8 862F      		mov r24,r22
 6485 30ca 90E0      		ldi r25,lo8(0)
 6486 30cc FC01      		movw r30,r24
 6487 30ce 65E0      		ldi r22,5
 6488 30d0 EE0F      	1:	lsl r30
 6489 30d2 FF1F      		rol r31
 6490 30d4 6A95      		dec r22
 6491 30d6 01F4      		brne 1b
 6492 30d8 880F      		lsl r24
 6493 30da 991F      		rol r25
 6494 30dc E80F      		add r30,r24
 6495 30de F91F      		adc r31,r25
 6496 30e0 E050      		subi r30,lo8(-(bankStates))
 6497 30e2 F040      		sbci r31,hi8(-(bankStates))
 6498 30e4 158E      		std Z+29,__zero_reg__
 6499               	.LM898:
 6500 30e6 7FBF      		out __SREG__,r23
 6501               	.LBE232:
 6502               	.LBE231:
 6503               	.LM899:
 6504 30e8 8091 0000 		lds r24,currentBank.3035
 6505 30ec 282F      		mov r18,r24
 6506 30ee 30E0      		ldi r19,lo8(0)
 6507 30f0 F901      		movw r30,r18
 6508 30f2 45E0      		ldi r20,5
 6509 30f4 EE0F      	1:	lsl r30
 6510 30f6 FF1F      		rol r31
 6511 30f8 4A95      		dec r20
 6512 30fa 01F4      		brne 1b
 6513 30fc 220F      		lsl r18
 6514 30fe 331F      		rol r19
 6515 3100 E20F      		add r30,r18
 6516 3102 F31F      		adc r31,r19
 6517 3104 E050      		subi r30,lo8(-(bankStates))
 6518 3106 F040      		sbci r31,hi8(-(bankStates))
 6519 3108 1782      		std Z+7,__zero_reg__
 6520               	.LM900:
 6521 310a 282F      		mov r18,r24
 6522 310c 30E0      		ldi r19,lo8(0)
 6523 310e F901      		movw r30,r18
 6524 3110 05E0      		ldi r16,5
 6525 3112 EE0F      	1:	lsl r30
 6526 3114 FF1F      		rol r31
 6527 3116 0A95      		dec r16
 6528 3118 01F4      		brne 1b
 6529 311a 220F      		lsl r18
 6530 311c 331F      		rol r19
 6531 311e E20F      		add r30,r18
 6532 3120 F31F      		adc r31,r19
 6533 3122 E050      		subi r30,lo8(-(bankStates))
 6534 3124 F040      		sbci r31,hi8(-(bankStates))
 6535 3126 1682      		std Z+6,__zero_reg__
 6536               	.LM901:
 6537 3128 282F      		mov r18,r24
 6538 312a 30E0      		ldi r19,lo8(0)
 6539 312c F901      		movw r30,r18
 6540 312e B5E0      		ldi r27,5
 6541 3130 EE0F      	1:	lsl r30
 6542 3132 FF1F      		rol r31
 6543 3134 BA95      		dec r27
 6544 3136 01F4      		brne 1b
 6545 3138 220F      		lsl r18
 6546 313a 331F      		rol r19
 6547 313c E20F      		add r30,r18
 6548 313e F31F      		adc r31,r19
 6549 3140 E050      		subi r30,lo8(-(bankStates))
 6550 3142 F040      		sbci r31,hi8(-(bankStates))
 6551 3144 1582      		std Z+5,__zero_reg__
 6552               	.LM902:
 6553 3146 282F      		mov r18,r24
 6554 3148 30E0      		ldi r19,lo8(0)
 6555 314a F901      		movw r30,r18
 6556 314c 74E0      		ldi r23,4
 6557 314e EE0F      	1:	lsl r30
 6558 3150 FF1F      		rol r31
 6559 3152 7A95      		dec r23
 6560 3154 01F4      		brne 1b
 6561               	.LVL159:
 6562 3156 E20F      		add r30,r18
 6563 3158 F31F      		adc r31,r19
 6564 315a EE0F      		lsl r30
 6565 315c FF1F      		rol r31
 6566 315e E050      		subi r30,lo8(-(bankStates+2))
 6567 3160 F040      		sbci r31,hi8(-(bankStates+2))
 6568 3162 1082      		st Z,__zero_reg__
 6569               	.LM903:
 6570 3164 282F      		mov r18,r24
 6571 3166 30E0      		ldi r19,lo8(0)
 6572 3168 F901      		movw r30,r18
 6573 316a 55E0      		ldi r21,5
 6574 316c EE0F      	1:	lsl r30
 6575 316e FF1F      		rol r31
 6576 3170 5A95      		dec r21
 6577 3172 01F4      		brne 1b
 6578 3174 220F      		lsl r18
 6579 3176 331F      		rol r19
 6580 3178 E20F      		add r30,r18
 6581 317a F31F      		adc r31,r19
 6582 317c E050      		subi r30,lo8(-(bankStates))
 6583 317e F040      		sbci r31,hi8(-(bankStates))
 6584 3180 1382      		std Z+3,__zero_reg__
 6585               	.LM904:
 6586 3182 282F      		mov r18,r24
 6587 3184 30E0      		ldi r19,lo8(0)
 6588 3186 F901      		movw r30,r18
 6589 3188 95E0      		ldi r25,5
 6590 318a EE0F      	1:	lsl r30
 6591 318c FF1F      		rol r31
 6592 318e 9A95      		dec r25
 6593 3190 01F4      		brne 1b
 6594 3192 220F      		lsl r18
 6595 3194 331F      		rol r19
 6596 3196 E20F      		add r30,r18
 6597 3198 F31F      		adc r31,r19
 6598 319a E050      		subi r30,lo8(-(bankStates))
 6599 319c F040      		sbci r31,hi8(-(bankStates))
 6600 319e 91E0      		ldi r25,lo8(1)
 6601 31a0 9483      		std Z+4,r25
 6602               	.LM905:
 6603 31a2 282F      		mov r18,r24
 6604 31a4 30E0      		ldi r19,lo8(0)
 6605 31a6 F901      		movw r30,r18
 6606 31a8 15E0      		ldi r17,5
 6607 31aa EE0F      	1:	lsl r30
 6608 31ac FF1F      		rol r31
 6609 31ae 1A95      		dec r17
 6610 31b0 01F4      		brne 1b
 6611 31b2 220F      		lsl r18
 6612 31b4 331F      		rol r19
 6613 31b6 E20F      		add r30,r18
 6614 31b8 F31F      		adc r31,r19
 6615 31ba E050      		subi r30,lo8(-(bankStates))
 6616 31bc F040      		sbci r31,hi8(-(bankStates))
 6617 31be 1182      		std Z+1,__zero_reg__
 6618               	.LM906:
 6619 31c0 1092 0000 		sts editModeEntered.3040,__zero_reg__
 6620               	.LM907:
 6621 31c4 64E0      		ldi r22,lo8(4)
 6622 31c6 42E1      		ldi r20,lo8(18)
 6623 31c8 20E0      		ldi r18,lo8(0)
 6624 31ca 0E94 0000 		call PutMidiMessageInOutgoingFifo
 6625               	.LM908:
 6626 31ce 8091 0000 		lds r24,currentBank.3035
 6627 31d2 64E0      		ldi r22,lo8(4)
 6628 31d4 4BE1      		ldi r20,lo8(27)
 6629 31d6 00C0      		rjmp .L458
 6630               	.L360:
 6631               	.LM909:
 6632 31d8 672B      		or r22,r23
 6633 31da 01F0      		breq .L362
 6634               	.LM910:
 6635 31dc 20FD      		sbrc r18,0
 6636 31de 00C0      		rjmp .L363
 6637 31e0 2670      		andi r18,lo8(6)
 6638 31e2 3070      		andi r19,hi8(6)
 6639 31e4 232B      		or r18,r19
 6640 31e6 01F0      		breq .L364
 6641               	.L363:
 6642               	.LM911:
 6643 31e8 81E0      		ldi r24,lo8(1)
 6644 31ea 8093 0000 		sts editModeEntered.3040,r24
 6645 31ee 00C0      		rjmp .L361
 6646               	.L364:
 6647               	.LM912:
 6648 31f0 452B      		or r20,r21
 6649 31f2 01F4      		brne .+2
 6650 31f4 00C0      		rjmp .L361
 6651               	.LM913:
 6652 31f6 2091 0000 		lds r18,currentBank.3035
 6653 31fa 822F      		mov r24,r18
 6654 31fc 90E0      		ldi r25,lo8(0)
 6655 31fe FC01      		movw r30,r24
 6656 3200 A4E0      		ldi r26,4
 6657 3202 EE0F      	1:	lsl r30
 6658 3204 FF1F      		rol r31
 6659 3206 AA95      		dec r26
 6660 3208 01F4      		brne 1b
 6661 320a E80F      		add r30,r24
 6662 320c F91F      		adc r31,r25
 6663 320e EE0F      		lsl r30
 6664 3210 FF1F      		rol r31
 6665 3212 E050      		subi r30,lo8(-(bankStates+2))
 6666 3214 F040      		sbci r31,hi8(-(bankStates+2))
 6667 3216 8081      		ld r24,Z
 6668 3218 8823      		tst r24
 6669 321a 01F4      		brne .L365
 6670               	.LM914:
 6671 321c 81E0      		ldi r24,lo8(1)
 6672 321e 8083      		st Z,r24
 6673               	.LM915:
 6674 3220 822F      		mov r24,r18
 6675 3222 64E0      		ldi r22,lo8(4)
 6676 3224 40E1      		ldi r20,lo8(16)
 6677 3226 00C0      		rjmp .L459
 6678               	.L365:
 6679               	.LM916:
 6680 3228 1082      		st Z,__zero_reg__
 6681               	.LM917:
 6682 322a 822F      		mov r24,r18
 6683 322c 64E0      		ldi r22,lo8(4)
 6684 322e 40E1      		ldi r20,lo8(16)
 6685 3230 00C0      		rjmp .L458
 6686               	.L362:
 6687               	.LM918:
 6688 3232 24FF      		sbrs r18,4
 6689 3234 00C0      		rjmp .L366
 6690               	.LM919:
 6691 3236 82FF      		sbrs r24,2
 6692 3238 00C0      		rjmp .L367
 6693               	.LM920:
 6694 323a 8091 0000 		lds r24,currentBank.3035
 6695 323e 61E0      		ldi r22,lo8(1)
 6696 3240 40E0      		ldi r20,lo8(0)
 6697 3242 50E0      		ldi r21,hi8(0)
 6698 3244 0E94 0000 		call StartRealtime
 6699               	.LM921:
 6700 3248 8091 0000 		lds r24,currentBank.3035
 6701 324c 64E0      		ldi r22,lo8(4)
 6702 324e 4EE0      		ldi r20,lo8(14)
 6703 3250 00C0      		rjmp .L460
 6704               	.L367:
 6705               	.LM922:
 6706 3252 84FF      		sbrs r24,4
 6707 3254 00C0      		rjmp .L361
 6708               	.LM923:
 6709 3256 2091 0000 		lds r18,currentBank.3035
 6710 325a 822F      		mov r24,r18
 6711 325c 90E0      		ldi r25,lo8(0)
 6712 325e FC01      		movw r30,r24
 6713 3260 65E0      		ldi r22,5
 6714 3262 EE0F      	1:	lsl r30
 6715 3264 FF1F      		rol r31
 6716 3266 6A95      		dec r22
 6717 3268 01F4      		brne 1b
 6718 326a 880F      		lsl r24
 6719 326c 991F      		rol r25
 6720 326e E80F      		add r30,r24
 6721 3270 F91F      		adc r31,r25
 6722 3272 E050      		subi r30,lo8(-(bankStates))
 6723 3274 F040      		sbci r31,hi8(-(bankStates))
 6724 3276 8381      		ldd r24,Z+3
 6725 3278 8823      		tst r24
 6726 327a 01F4      		brne .L368
 6727               	.LM924:
 6728 327c 822F      		mov r24,r18
 6729 327e 90E0      		ldi r25,lo8(0)
 6730 3280 FC01      		movw r30,r24
 6731 3282 45E0      		ldi r20,5
 6732 3284 EE0F      	1:	lsl r30
 6733 3286 FF1F      		rol r31
 6734 3288 4A95      		dec r20
 6735 328a 01F4      		brne 1b
 6736 328c 880F      		lsl r24
 6737 328e 991F      		rol r25
 6738 3290 E80F      		add r30,r24
 6739 3292 F91F      		adc r31,r25
 6740 3294 E050      		subi r30,lo8(-(bankStates))
 6741 3296 F040      		sbci r31,hi8(-(bankStates))
 6742 3298 81E0      		ldi r24,lo8(1)
 6743 329a 8383      		std Z+3,r24
 6744               	.LM925:
 6745 329c 822F      		mov r24,r18
 6746 329e 64E0      		ldi r22,lo8(4)
 6747 32a0 41E1      		ldi r20,lo8(17)
 6748 32a2 20E4      		ldi r18,lo8(64)
 6749 32a4 00C0      		rjmp .L447
 6750               	.L368:
 6751               	.LM926:
 6752 32a6 822F      		mov r24,r18
 6753 32a8 90E0      		ldi r25,lo8(0)
 6754 32aa FC01      		movw r30,r24
 6755 32ac 05E0      		ldi r16,5
 6756 32ae EE0F      	1:	lsl r30
 6757 32b0 FF1F      		rol r31
 6758 32b2 0A95      		dec r16
 6759 32b4 01F4      		brne 1b
 6760 32b6 880F      		lsl r24
 6761 32b8 991F      		rol r25
 6762 32ba E80F      		add r30,r24
 6763 32bc F91F      		adc r31,r25
 6764 32be E050      		subi r30,lo8(-(bankStates))
 6765 32c0 F040      		sbci r31,hi8(-(bankStates))
 6766 32c2 1382      		std Z+3,__zero_reg__
 6767               	.LM927:
 6768 32c4 822F      		mov r24,r18
 6769 32c6 64E0      		ldi r22,lo8(4)
 6770 32c8 41E1      		ldi r20,lo8(17)
 6771 32ca 20E0      		ldi r18,lo8(0)
 6772               	.L447:
 6773 32cc 0E94 0000 		call PutMidiMessageInOutgoingFifo
 6774               	.LM928:
 6775 32d0 8091 0000 		lds r24,currentBank.3035
 6776 32d4 0E94 0000 		call UpdateAdjustedSampleAddresses
 6777 32d8 00C0      		rjmp .L361
 6778               	.L366:
 6779               	.LM929:
 6780 32da 80FF      		sbrs r24,0
 6781 32dc 00C0      		rjmp .L370
 6782               	.LM930:
 6783 32de 8091 0000 		lds r24,currentBank.3035
 6784 32e2 2091 0000 		lds r18,scaledEncoderValue
 6785 32e6 482F      		mov r20,r24
 6786 32e8 50E0      		ldi r21,lo8(0)
 6787 32ea FA01      		movw r30,r20
 6788 32ec B5E0      		ldi r27,5
 6789 32ee EE0F      	1:	lsl r30
 6790 32f0 FF1F      		rol r31
 6791 32f2 BA95      		dec r27
 6792 32f4 01F4      		brne 1b
 6793 32f6 440F      		lsl r20
 6794 32f8 551F      		rol r21
 6795 32fa E40F      		add r30,r20
 6796 32fc F51F      		adc r31,r21
 6797 32fe E050      		subi r30,lo8(-(bankStates))
 6798 3300 F040      		sbci r31,hi8(-(bankStates))
 6799 3302 2783      		std Z+7,r18
 6800               	.LM931:
 6801 3304 64E0      		ldi r22,lo8(4)
 6802 3306 43E1      		ldi r20,lo8(19)
 6803 3308 0E94 0000 		call PutMidiMessageInOutgoingFifo
 6804               	.L370:
 6805               	.LM932:
 6806 330c 8091 0000 		lds r24,newKeys
 6807 3310 81FF      		sbrs r24,1
 6808 3312 00C0      		rjmp .L371
 6809               	.LM933:
 6810 3314 6091 0000 		lds r22,encoderValue
 6811 3318 6695      		lsr r22
 6812 331a 8091 0000 		lds r24,currentBank.3035
 6813 331e 0E94 0000 		call MakeNewGranularArray
 6814               	.LM934:
 6815 3322 2091 0000 		lds r18,encoderValue
 6816 3326 2695      		lsr r18
 6817 3328 8091 0000 		lds r24,currentBank.3035
 6818 332c 64E0      		ldi r22,lo8(4)
 6819 332e 44E1      		ldi r20,lo8(20)
 6820 3330 0E94 0000 		call PutMidiMessageInOutgoingFifo
 6821               	.L371:
 6822               	.LM935:
 6823 3334 8091 0000 		lds r24,newKeys
 6824 3338 82FF      		sbrs r24,2
 6825 333a 00C0      		rjmp .L361
 6826               	.LM936:
 6827 333c 2091 0000 		lds r18,scaledEncoderValue
 6828 3340 2130      		cpi r18,lo8(1)
 6829 3342 01F0      		breq .L373
 6830 3344 2130      		cpi r18,lo8(1)
 6831 3346 00F0      		brlo .L372
 6832 3348 2230      		cpi r18,lo8(2)
 6833 334a 01F0      		breq .L374
 6834 334c 2330      		cpi r18,lo8(3)
 6835 334e 01F0      		breq .+2
 6836 3350 00C0      		rjmp .L361
 6837 3352 00C0      		rjmp .L465
 6838               	.L372:
 6839               	.LM937:
 6840 3354 80E0      		ldi r24,lo8(gs(OutputAddBanks))
 6841 3356 90E0      		ldi r25,hi8(gs(OutputAddBanks))
 6842 3358 9093 0000 		sts (UpdateOutput)+1,r25
 6843 335c 8093 0000 		sts UpdateOutput,r24
 6844               	.LM938:
 6845 3360 8091 0000 		lds r24,currentBank.3035
 6846 3364 64E0      		ldi r22,lo8(4)
 6847 3366 46E1      		ldi r20,lo8(22)
 6848 3368 00C0      		rjmp .L448
 6849               	.L373:
 6850               	.LM939:
 6851 336a 80E0      		ldi r24,lo8(gs(OutputMultiplyBanks))
 6852 336c 90E0      		ldi r25,hi8(gs(OutputMultiplyBanks))
 6853 336e 9093 0000 		sts (UpdateOutput)+1,r25
 6854 3372 8093 0000 		sts UpdateOutput,r24
 6855               	.LM940:
 6856 3376 8091 0000 		lds r24,currentBank.3035
 6857 337a 64E0      		ldi r22,lo8(4)
 6858 337c 46E1      		ldi r20,lo8(22)
 6859 337e 21E0      		ldi r18,lo8(1)
 6860 3380 00C0      		rjmp .L448
 6861               	.L374:
 6862               	.LM941:
 6863 3382 80E0      		ldi r24,lo8(gs(OutputAndBanks))
 6864 3384 90E0      		ldi r25,hi8(gs(OutputAndBanks))
 6865 3386 9093 0000 		sts (UpdateOutput)+1,r25
 6866 338a 8093 0000 		sts UpdateOutput,r24
 6867               	.LM942:
 6868 338e 8091 0000 		lds r24,currentBank.3035
 6869 3392 64E0      		ldi r22,lo8(4)
 6870 3394 46E1      		ldi r20,lo8(22)
 6871 3396 22E0      		ldi r18,lo8(2)
 6872 3398 00C0      		rjmp .L448
 6873               	.L465:
 6874               	.LM943:
 6875 339a 80E0      		ldi r24,lo8(gs(OutputXorBanks))
 6876 339c 90E0      		ldi r25,hi8(gs(OutputXorBanks))
 6877 339e 9093 0000 		sts (UpdateOutput)+1,r25
 6878 33a2 8093 0000 		sts UpdateOutput,r24
 6879               	.LM944:
 6880 33a6 8091 0000 		lds r24,currentBank.3035
 6881 33aa 64E0      		ldi r22,lo8(4)
 6882 33ac 46E1      		ldi r20,lo8(22)
 6883 33ae 23E0      		ldi r18,lo8(3)
 6884 33b0 00C0      		rjmp .L448
 6885               	.L357:
 6886               	.LM945:
 6887 33b2 8091 0000 		lds r24,newKeys
 6888 33b6 90E0      		ldi r25,lo8(0)
 6889 33b8 80FF      		sbrs r24,0
 6890 33ba 00C0      		rjmp .L376
 6891               	.LM946:
 6892 33bc 2091 0000 		lds r18,currentBank.3035
 6893 33c0 822F      		mov r24,r18
 6894 33c2 FC01      		movw r30,r24
 6895 33c4 75E0      		ldi r23,5
 6896 33c6 EE0F      	1:	lsl r30
 6897 33c8 FF1F      		rol r31
 6898 33ca 7A95      		dec r23
 6899 33cc 01F4      		brne 1b
 6900 33ce 880F      		lsl r24
 6901 33d0 991F      		rol r25
 6902 33d2 E80F      		add r30,r24
 6903 33d4 F91F      		adc r31,r25
 6904 33d6 E050      		subi r30,lo8(-(bankStates))
 6905 33d8 F040      		sbci r31,hi8(-(bankStates))
 6906 33da 8081      		ld r24,Z
 6907 33dc 8330      		cpi r24,lo8(3)
 6908 33de 01F4      		brne .L377
 6909               	.LM947:
 6910 33e0 822F      		mov r24,r18
 6911 33e2 61E0      		ldi r22,lo8(1)
 6912 33e4 40E0      		ldi r20,lo8(0)
 6913 33e6 50E0      		ldi r21,hi8(0)
 6914 33e8 0E94 0000 		call StartPlayback
 6915 33ec 00C0      		rjmp .L457
 6916               	.L377:
 6917               	.LM948:
 6918 33ee 822F      		mov r24,r18
 6919 33f0 61E0      		ldi r22,lo8(1)
 6920 33f2 40E0      		ldi r20,lo8(0)
 6921 33f4 50E0      		ldi r21,hi8(0)
 6922 33f6 0E94 0000 		call StartRecording
 6923               	.LM949:
 6924 33fa 8091 0000 		lds r24,currentBank.3035
 6925 33fe 64E0      		ldi r22,lo8(4)
 6926 3400 43E0      		ldi r20,lo8(3)
 6927 3402 00C0      		rjmp .L460
 6928               	.L376:
 6929               	.LM950:
 6930 3404 81FF      		sbrs r24,1
 6931 3406 00C0      		rjmp .L378
 6932               	.LM951:
 6933 3408 6091 0000 		lds r22,currentBank.3035
 6934 340c 862F      		mov r24,r22
 6935 340e 90E0      		ldi r25,lo8(0)
 6936 3410 FC01      		movw r30,r24
 6937 3412 55E0      		ldi r21,5
 6938 3414 EE0F      	1:	lsl r30
 6939 3416 FF1F      		rol r31
 6940 3418 5A95      		dec r21
 6941 341a 01F4      		brne 1b
 6942 341c 880F      		lsl r24
 6943 341e 991F      		rol r25
 6944 3420 E80F      		add r30,r24
 6945 3422 F91F      		adc r31,r25
 6946 3424 E050      		subi r30,lo8(-(bankStates))
 6947 3426 F040      		sbci r31,hi8(-(bankStates))
 6948 3428 8081      		ld r24,Z
 6949 342a 8530      		cpi r24,lo8(5)
 6950 342c 01F4      		brne .L379
 6951               	.LBB233:
 6952               	.LBB234:
 6953               	.LM952:
 6954 342e 1FB7      		in r17,__SREG__
 6955               	.LVL160:
 6956               	.LM953:
 6957               	/* #APP */
 6958               	 ;  2759 "WTPA.c" 1
 6959 3430 F894      		cli
 6960               	 ;  0 "" 2
 6961               	.LM954:
 6962               	/* #NOAPP */
 6963 3432 862F      		mov r24,r22
 6964 3434 90E0      		ldi r25,lo8(0)
 6965 3436 FC01      		movw r30,r24
 6966 3438 35E0      		ldi r19,5
 6967 343a EE0F      	1:	lsl r30
 6968 343c FF1F      		rol r31
 6969 343e 3A95      		dec r19
 6970 3440 01F4      		brne 1b
 6971 3442 880F      		lsl r24
 6972 3444 991F      		rol r25
 6973 3446 E80F      		add r30,r24
 6974 3448 F91F      		adc r31,r25
 6975 344a E050      		subi r30,lo8(-(bankStates))
 6976 344c F040      		sbci r31,hi8(-(bankStates))
 6977 344e 84E0      		ldi r24,lo8(4)
 6978 3450 8083      		st Z,r24
 6979               	.LM955:
 6980 3452 862F      		mov r24,r22
 6981 3454 61E0      		ldi r22,lo8(1)
 6982 3456 40E0      		ldi r20,lo8(0)
 6983 3458 50E0      		ldi r21,hi8(0)
 6984 345a 0E94 0000 		call SetSampleClock
 6985               	.LM956:
 6986 345e 1FBF      		out __SREG__,r17
 6987               	.LBE234:
 6988               	.LBE233:
 6989               	.LM957:
 6990 3460 8091 0000 		lds r24,currentBank.3035
 6991 3464 282F      		mov r18,r24
 6992 3466 30E0      		ldi r19,lo8(0)
 6993 3468 F901      		movw r30,r18
 6994 346a 95E0      		ldi r25,5
 6995 346c EE0F      	1:	lsl r30
 6996 346e FF1F      		rol r31
 6997 3470 9A95      		dec r25
 6998 3472 01F4      		brne 1b
 6999 3474 220F      		lsl r18
 7000 3476 331F      		rol r19
 7001 3478 E20F      		add r30,r18
 7002 347a F31F      		adc r31,r19
 7003 347c E050      		subi r30,lo8(-(bankStates))
 7004 347e F040      		sbci r31,hi8(-(bankStates))
 7005 3480 1182      		std Z+1,__zero_reg__
 7006               	.LM958:
 7007 3482 64E0      		ldi r22,lo8(4)
 7008 3484 49E0      		ldi r20,lo8(9)
 7009 3486 00C0      		rjmp .L458
 7010               	.LVL161:
 7011               	.L379:
 7012               	.LM959:
 7013 3488 862F      		mov r24,r22
 7014 348a 90E0      		ldi r25,lo8(0)
 7015 348c FC01      		movw r30,r24
 7016 348e 15E0      		ldi r17,5
 7017 3490 EE0F      	1:	lsl r30
 7018 3492 FF1F      		rol r31
 7019 3494 1A95      		dec r17
 7020 3496 01F4      		brne 1b
 7021 3498 880F      		lsl r24
 7022 349a 991F      		rol r25
 7023 349c E80F      		add r30,r24
 7024 349e F91F      		adc r31,r25
 7025 34a0 E050      		subi r30,lo8(-(bankStates))
 7026 34a2 F040      		sbci r31,hi8(-(bankStates))
 7027 34a4 2785      		ldd r18,Z+15
 7028 34a6 3089      		ldd r19,Z+16
 7029 34a8 4189      		ldd r20,Z+17
 7030 34aa 5289      		ldd r21,Z+18
 7031 34ac 862F      		mov r24,r22
 7032 34ae 90E0      		ldi r25,lo8(0)
 7033 34b0 FC01      		movw r30,r24
 7034 34b2 A5E0      		ldi r26,5
 7035 34b4 EE0F      	1:	lsl r30
 7036 34b6 FF1F      		rol r31
 7037 34b8 AA95      		dec r26
 7038 34ba 01F4      		brne 1b
 7039 34bc 880F      		lsl r24
 7040 34be 991F      		rol r25
 7041 34c0 E80F      		add r30,r24
 7042 34c2 F91F      		adc r31,r25
 7043 34c4 E050      		subi r30,lo8(-(bankStates))
 7044 34c6 F040      		sbci r31,hi8(-(bankStates))
 7045 34c8 8385      		ldd r24,Z+11
 7046 34ca 9485      		ldd r25,Z+12
 7047 34cc A585      		ldd r26,Z+13
 7048 34ce B685      		ldd r27,Z+14
 7049 34d0 2817      		cp r18,r24
 7050 34d2 3907      		cpc r19,r25
 7051 34d4 4A07      		cpc r20,r26
 7052 34d6 5B07      		cpc r21,r27
 7053 34d8 01F4      		brne .+2
 7054 34da 00C0      		rjmp .L361
 7055               	.LM960:
 7056 34dc 862F      		mov r24,r22
 7057 34de 61E0      		ldi r22,lo8(1)
 7058 34e0 40E0      		ldi r20,lo8(0)
 7059 34e2 50E0      		ldi r21,hi8(0)
 7060 34e4 0E94 0000 		call StartOverdub
 7061               	.LM961:
 7062 34e8 8091 0000 		lds r24,currentBank.3035
 7063 34ec 64E0      		ldi r22,lo8(4)
 7064 34ee 49E0      		ldi r20,lo8(9)
 7065               	.L460:
 7066 34f0 20E3      		ldi r18,lo8(48)
 7067 34f2 00C0      		rjmp .L448
 7068               	.L378:
 7069               	.LM962:
 7070 34f4 82FF      		sbrs r24,2
 7071 34f6 00C0      		rjmp .L380
 7072               	.LM963:
 7073 34f8 6091 0000 		lds r22,currentBank.3035
 7074 34fc 862F      		mov r24,r22
 7075 34fe 90E0      		ldi r25,lo8(0)
 7076 3500 FC01      		movw r30,r24
 7077 3502 55E0      		ldi r21,5
 7078 3504 EE0F      	1:	lsl r30
 7079 3506 FF1F      		rol r31
 7080 3508 5A95      		dec r21
 7081 350a 01F4      		brne 1b
 7082 350c 880F      		lsl r24
 7083 350e 991F      		rol r25
 7084 3510 E80F      		add r30,r24
 7085 3512 F91F      		adc r31,r25
 7086 3514 E050      		subi r30,lo8(-(bankStates))
 7087 3516 F040      		sbci r31,hi8(-(bankStates))
 7088 3518 8081      		ld r24,Z
 7089 351a 8823      		tst r24
 7090 351c 01F0      		breq .+2
 7091 351e 00C0      		rjmp .L381
 7092               	.LM964:
 7093 3520 862F      		mov r24,r22
 7094 3522 90E0      		ldi r25,lo8(0)
 7095 3524 FC01      		movw r30,r24
 7096 3526 35E0      		ldi r19,5
 7097 3528 EE0F      	1:	lsl r30
 7098 352a FF1F      		rol r31
 7099 352c 3A95      		dec r19
 7100 352e 01F4      		brne 1b
 7101 3530 880F      		lsl r24
 7102 3532 991F      		rol r25
 7103 3534 E80F      		add r30,r24
 7104 3536 F91F      		adc r31,r25
 7105 3538 E050      		subi r30,lo8(-(bankStates))
 7106 353a F040      		sbci r31,hi8(-(bankStates))
 7107 353c 2785      		ldd r18,Z+15
 7108 353e 3089      		ldd r19,Z+16
 7109 3540 4189      		ldd r20,Z+17
 7110 3542 5289      		ldd r21,Z+18
 7111 3544 862F      		mov r24,r22
 7112 3546 90E0      		ldi r25,lo8(0)
 7113 3548 FC01      		movw r30,r24
 7114 354a 05E0      		ldi r16,5
 7115 354c EE0F      	1:	lsl r30
 7116 354e FF1F      		rol r31
 7117 3550 0A95      		dec r16
 7118 3552 01F4      		brne 1b
 7119 3554 880F      		lsl r24
 7120 3556 991F      		rol r25
 7121 3558 E80F      		add r30,r24
 7122 355a F91F      		adc r31,r25
 7123 355c E050      		subi r30,lo8(-(bankStates))
 7124 355e F040      		sbci r31,hi8(-(bankStates))
 7125 3560 8385      		ldd r24,Z+11
 7126 3562 9485      		ldd r25,Z+12
 7127 3564 A585      		ldd r26,Z+13
 7128 3566 B685      		ldd r27,Z+14
 7129 3568 2817      		cp r18,r24
 7130 356a 3907      		cpc r19,r25
 7131 356c 4A07      		cpc r20,r26
 7132 356e 5B07      		cpc r21,r27
 7133 3570 01F4      		brne .+2
 7134 3572 00C0      		rjmp .L361
 7135               	.LBB235:
 7136               	.LBB236:
 7137               	.LM965:
 7138 3574 1FB7      		in r17,__SREG__
 7139               	.LVL162:
 7140               	.LM966:
 7141               	/* #APP */
 7142               	 ;  2759 "WTPA.c" 1
 7143 3576 F894      		cli
 7144               	 ;  0 "" 2
 7145               	.LM967:
 7146               	/* #NOAPP */
 7147 3578 862F      		mov r24,r22
 7148 357a 90E0      		ldi r25,lo8(0)
 7149 357c FC01      		movw r30,r24
 7150 357e B5E0      		ldi r27,5
 7151 3580 EE0F      	1:	lsl r30
 7152 3582 FF1F      		rol r31
 7153 3584 BA95      		dec r27
 7154 3586 01F4      		brne 1b
 7155 3588 880F      		lsl r24
 7156 358a 991F      		rol r25
 7157 358c E80F      		add r30,r24
 7158 358e F91F      		adc r31,r25
 7159 3590 E050      		subi r30,lo8(-(bankStates))
 7160 3592 F040      		sbci r31,hi8(-(bankStates))
 7161 3594 84E0      		ldi r24,lo8(4)
 7162 3596 8083      		st Z,r24
 7163               	.LM968:
 7164 3598 862F      		mov r24,r22
 7165 359a 61E0      		ldi r22,lo8(1)
 7166 359c 40E0      		ldi r20,lo8(0)
 7167 359e 50E0      		ldi r21,hi8(0)
 7168 35a0 0E94 0000 		call SetSampleClock
 7169               	.LM969:
 7170 35a4 1FBF      		out __SREG__,r17
 7171               	.L457:
 7172               	.LBE236:
 7173               	.LBE235:
 7174               	.LM970:
 7175 35a6 8091 0000 		lds r24,currentBank.3035
 7176 35aa 282F      		mov r18,r24
 7177 35ac 30E0      		ldi r19,lo8(0)
 7178 35ae F901      		movw r30,r18
 7179 35b0 75E0      		ldi r23,5
 7180 35b2 EE0F      	1:	lsl r30
 7181 35b4 FF1F      		rol r31
 7182 35b6 7A95      		dec r23
 7183 35b8 01F4      		brne 1b
 7184 35ba 220F      		lsl r18
 7185 35bc 331F      		rol r19
 7186 35be E20F      		add r30,r18
 7187 35c0 F31F      		adc r31,r19
 7188 35c2 E050      		subi r30,lo8(-(bankStates))
 7189 35c4 F040      		sbci r31,hi8(-(bankStates))
 7190 35c6 1182      		std Z+1,__zero_reg__
 7191               	.L464:
 7192               	.LM971:
 7193 35c8 61E0      		ldi r22,lo8(1)
 7194 35ca 40E3      		ldi r20,lo8(48)
 7195               	.L459:
 7196 35cc 20E4      		ldi r18,lo8(64)
 7197 35ce 00C0      		rjmp .L448
 7198               	.LVL163:
 7199               	.L381:
 7200               	.LM972:
 7201 35d0 862F      		mov r24,r22
 7202 35d2 90E0      		ldi r25,lo8(0)
 7203 35d4 FC01      		movw r30,r24
 7204 35d6 55E0      		ldi r21,5
 7205 35d8 EE0F      	1:	lsl r30
 7206 35da FF1F      		rol r31
 7207 35dc 5A95      		dec r21
 7208 35de 01F4      		brne 1b
 7209 35e0 880F      		lsl r24
 7210 35e2 991F      		rol r25
 7211 35e4 E80F      		add r30,r24
 7212 35e6 F91F      		adc r31,r25
 7213 35e8 E050      		subi r30,lo8(-(bankStates))
 7214 35ea F040      		sbci r31,hi8(-(bankStates))
 7215 35ec 1082      		st Z,__zero_reg__
 7216               	.LM973:
 7217 35ee 862F      		mov r24,r22
 7218 35f0 90E0      		ldi r25,lo8(0)
 7219 35f2 FC01      		movw r30,r24
 7220 35f4 35E0      		ldi r19,5
 7221 35f6 EE0F      	1:	lsl r30
 7222 35f8 FF1F      		rol r31
 7223 35fa 3A95      		dec r19
 7224 35fc 01F4      		brne 1b
 7225 35fe 880F      		lsl r24
 7226 3600 991F      		rol r25
 7227 3602 E80F      		add r30,r24
 7228 3604 F91F      		adc r31,r25
 7229 3606 E050      		subi r30,lo8(-(bankStates))
 7230 3608 F040      		sbci r31,hi8(-(bankStates))
 7231 360a 1086      		std Z+8,__zero_reg__
 7232               	.LM974:
 7233 360c 862F      		mov r24,r22
 7234 360e 62E0      		ldi r22,lo8(2)
 7235 3610 40E3      		ldi r20,lo8(48)
 7236               	.LVL164:
 7237               	.L458:
 7238 3612 20E0      		ldi r18,lo8(0)
 7239 3614 00C0      		rjmp .L448
 7240               	.LVL165:
 7241               	.L380:
 7242               	.LM975:
 7243 3616 83FF      		sbrs r24,3
 7244 3618 00C0      		rjmp .L382
 7245               	.LM976:
 7246 361a 6091 0000 		lds r22,currentBank.3035
 7247 361e 862F      		mov r24,r22
 7248 3620 90E0      		ldi r25,lo8(0)
 7249 3622 FC01      		movw r30,r24
 7250 3624 05E0      		ldi r16,5
 7251 3626 EE0F      	1:	lsl r30
 7252 3628 FF1F      		rol r31
 7253 362a 0A95      		dec r16
 7254 362c 01F4      		brne 1b
 7255 362e 880F      		lsl r24
 7256 3630 991F      		rol r25
 7257 3632 E80F      		add r30,r24
 7258 3634 F91F      		adc r31,r25
 7259 3636 E050      		subi r30,lo8(-(bankStates))
 7260 3638 F040      		sbci r31,hi8(-(bankStates))
 7261 363a 2785      		ldd r18,Z+15
 7262 363c 3089      		ldd r19,Z+16
 7263 363e 4189      		ldd r20,Z+17
 7264 3640 5289      		ldd r21,Z+18
 7265 3642 862F      		mov r24,r22
 7266 3644 90E0      		ldi r25,lo8(0)
 7267 3646 FC01      		movw r30,r24
 7268 3648 A5E0      		ldi r26,5
 7269 364a EE0F      	1:	lsl r30
 7270 364c FF1F      		rol r31
 7271 364e AA95      		dec r26
 7272 3650 01F4      		brne 1b
 7273 3652 880F      		lsl r24
 7274 3654 991F      		rol r25
 7275 3656 E80F      		add r30,r24
 7276 3658 F91F      		adc r31,r25
 7277 365a E050      		subi r30,lo8(-(bankStates))
 7278 365c F040      		sbci r31,hi8(-(bankStates))
 7279 365e 8385      		ldd r24,Z+11
 7280 3660 9485      		ldd r25,Z+12
 7281 3662 A585      		ldd r26,Z+13
 7282 3664 B685      		ldd r27,Z+14
 7283 3666 2817      		cp r18,r24
 7284 3668 3907      		cpc r19,r25
 7285 366a 4A07      		cpc r20,r26
 7286 366c 5B07      		cpc r21,r27
 7287 366e 01F4      		brne .+2
 7288 3670 00C0      		rjmp .L361
 7289               	.LM977:
 7290 3672 862F      		mov r24,r22
 7291 3674 61E0      		ldi r22,lo8(1)
 7292 3676 40E0      		ldi r20,lo8(0)
 7293 3678 50E0      		ldi r21,hi8(0)
 7294 367a 0E94 0000 		call StartPlayback
 7295               	.LM978:
 7296 367e 8091 0000 		lds r24,currentBank.3035
 7297 3682 282F      		mov r18,r24
 7298 3684 30E0      		ldi r19,lo8(0)
 7299 3686 F901      		movw r30,r18
 7300 3688 95E0      		ldi r25,5
 7301 368a EE0F      	1:	lsl r30
 7302 368c FF1F      		rol r31
 7303 368e 9A95      		dec r25
 7304 3690 01F4      		brne 1b
 7305 3692 220F      		lsl r18
 7306 3694 331F      		rol r19
 7307 3696 E20F      		add r30,r18
 7308 3698 F31F      		adc r31,r19
 7309 369a E050      		subi r30,lo8(-(bankStates))
 7310 369c F040      		sbci r31,hi8(-(bankStates))
 7311 369e 1183      		std Z+1,r17
 7312 36a0 00C0      		rjmp .L464
 7313               	.L382:
 7314               	.LM979:
 7315 36a2 84FF      		sbrs r24,4
 7316 36a4 00C0      		rjmp .L361
 7317               	.LM980:
 7318 36a6 8091 0000 		lds r24,currentBank.3035
 7319 36aa 8F5F      		subi r24,lo8(-(1))
 7320 36ac 8093 0000 		sts currentBank.3035,r24
 7321               	.LM981:
 7322 36b0 8230      		cpi r24,lo8(2)
 7323 36b2 00F4      		brsh .+2
 7324 36b4 00C0      		rjmp .L361
 7325               	.LM982:
 7326 36b6 1092 0000 		sts currentBank.3035,__zero_reg__
 7327 36ba 00C0      		rjmp .L361
 7328               	.L356:
 7329               	.LM983:
 7330 36bc 892F      		mov r24,r25
 7331 36be 90E0      		ldi r25,lo8(0)
 7332 36c0 80FF      		sbrs r24,0
 7333 36c2 00C0      		rjmp .L383
 7334               	.LM984:
 7335 36c4 2091 0000 		lds r18,currentBank.3035
 7336 36c8 822F      		mov r24,r18
 7337 36ca FC01      		movw r30,r24
 7338 36cc 15E0      		ldi r17,5
 7339 36ce EE0F      	1:	lsl r30
 7340 36d0 FF1F      		rol r31
 7341 36d2 1A95      		dec r17
 7342 36d4 01F4      		brne 1b
 7343 36d6 880F      		lsl r24
 7344 36d8 991F      		rol r25
 7345 36da E80F      		add r30,r24
 7346 36dc F91F      		adc r31,r25
 7347 36de E050      		subi r30,lo8(-(bankStates))
 7348 36e0 F040      		sbci r31,hi8(-(bankStates))
 7349 36e2 838D      		ldd r24,Z+27
 7350 36e4 3091 0000 		lds r19,encoderValue
 7351 36e8 8317      		cp r24,r19
 7352 36ea 01F4      		brne .+2
 7353 36ec 00C0      		rjmp .L361
 7354               	.LBB237:
 7355               	.LBB238:
 7356               	.LM985:
 7357 36ee 822F      		mov r24,r18
 7358 36f0 90E0      		ldi r25,lo8(0)
 7359 36f2 FC01      		movw r30,r24
 7360 36f4 A5E0      		ldi r26,5
 7361 36f6 EE0F      	1:	lsl r30
 7362 36f8 FF1F      		rol r31
 7363 36fa AA95      		dec r26
 7364 36fc 01F4      		brne 1b
 7365 36fe 880F      		lsl r24
 7366 3700 991F      		rol r25
 7367 3702 E80F      		add r30,r24
 7368 3704 F91F      		adc r31,r25
 7369 3706 E050      		subi r30,lo8(-(bankStates))
 7370 3708 F040      		sbci r31,hi8(-(bankStates))
 7371 370a 338F      		std Z+27,r19
 7372               	.LM986:
 7373 370c 822F      		mov r24,r18
 7374 370e 0E94 0000 		call UpdateAdjustedSampleAddresses
 7375               	.LBE238:
 7376               	.LBE237:
 7377               	.LM987:
 7378 3712 2091 0000 		lds r18,encoderValue
 7379 3716 2695      		lsr r18
 7380 3718 8091 0000 		lds r24,currentBank.3035
 7381 371c 64E0      		ldi r22,lo8(4)
 7382 371e 4CE1      		ldi r20,lo8(28)
 7383               	.LVL166:
 7384               	.L448:
 7385 3720 0E94 0000 		call PutMidiMessageInOutgoingFifo
 7386 3724 00C0      		rjmp .L361
 7387               	.LVL167:
 7388               	.L383:
 7389               	.LM988:
 7390 3726 81FF      		sbrs r24,1
 7391 3728 00C0      		rjmp .L384
 7392               	.LM989:
 7393 372a 2091 0000 		lds r18,currentBank.3035
 7394 372e 822F      		mov r24,r18
 7395 3730 90E0      		ldi r25,lo8(0)
 7396 3732 FC01      		movw r30,r24
 7397 3734 65E0      		ldi r22,5
 7398 3736 EE0F      	1:	lsl r30
 7399 3738 FF1F      		rol r31
 7400 373a 6A95      		dec r22
 7401 373c 01F4      		brne 1b
 7402 373e 880F      		lsl r24
 7403 3740 991F      		rol r25
 7404 3742 E80F      		add r30,r24
 7405 3744 F91F      		adc r31,r25
 7406 3746 E050      		subi r30,lo8(-(bankStates))
 7407 3748 F040      		sbci r31,hi8(-(bankStates))
 7408 374a 848D      		ldd r24,Z+28
 7409 374c 3091 0000 		lds r19,encoderValue
 7410 3750 8317      		cp r24,r19
 7411 3752 01F4      		brne .+2
 7412 3754 00C0      		rjmp .L361
 7413               	.LBB239:
 7414               	.LBB240:
 7415               	.LM990:
 7416 3756 822F      		mov r24,r18
 7417 3758 90E0      		ldi r25,lo8(0)
 7418 375a FC01      		movw r30,r24
 7419 375c 45E0      		ldi r20,5
 7420 375e EE0F      	1:	lsl r30
 7421 3760 FF1F      		rol r31
 7422 3762 4A95      		dec r20
 7423 3764 01F4      		brne 1b
 7424 3766 880F      		lsl r24
 7425 3768 991F      		rol r25
 7426 376a E80F      		add r30,r24
 7427 376c F91F      		adc r31,r25
 7428 376e E050      		subi r30,lo8(-(bankStates))
 7429 3770 F040      		sbci r31,hi8(-(bankStates))
 7430 3772 348F      		std Z+28,r19
 7431               	.LM991:
 7432 3774 822F      		mov r24,r18
 7433 3776 0E94 0000 		call UpdateAdjustedSampleAddresses
 7434               	.LBE240:
 7435               	.LBE239:
 7436               	.LM992:
 7437 377a 2091 0000 		lds r18,encoderValue
 7438 377e 2695      		lsr r18
 7439 3780 8091 0000 		lds r24,currentBank.3035
 7440 3784 64E0      		ldi r22,lo8(4)
 7441 3786 4DE1      		ldi r20,lo8(29)
 7442 3788 00C0      		rjmp .L448
 7443               	.L384:
 7444               	.LM993:
 7445 378a 82FF      		sbrs r24,2
 7446 378c 00C0      		rjmp .L385
 7447               	.LM994:
 7448 378e 2091 0000 		lds r18,currentBank.3035
 7449 3792 822F      		mov r24,r18
 7450 3794 90E0      		ldi r25,lo8(0)
 7451 3796 FC01      		movw r30,r24
 7452 3798 15E0      		ldi r17,5
 7453 379a EE0F      	1:	lsl r30
 7454 379c FF1F      		rol r31
 7455 379e 1A95      		dec r17
 7456 37a0 01F4      		brne 1b
 7457 37a2 880F      		lsl r24
 7458 37a4 991F      		rol r25
 7459 37a6 E80F      		add r30,r24
 7460 37a8 F91F      		adc r31,r25
 7461 37aa E050      		subi r30,lo8(-(bankStates))
 7462 37ac F040      		sbci r31,hi8(-(bankStates))
 7463 37ae 858D      		ldd r24,Z+29
 7464 37b0 3091 0000 		lds r19,encoderValue
 7465 37b4 8317      		cp r24,r19
 7466 37b6 01F0      		breq .L361
 7467               	.LBB241:
 7468               	.LBB242:
 7469               	.LM995:
 7470 37b8 822F      		mov r24,r18
 7471 37ba 90E0      		ldi r25,lo8(0)
 7472 37bc FC01      		movw r30,r24
 7473 37be A5E0      		ldi r26,5
 7474 37c0 EE0F      	1:	lsl r30
 7475 37c2 FF1F      		rol r31
 7476 37c4 AA95      		dec r26
 7477 37c6 01F4      		brne 1b
 7478 37c8 880F      		lsl r24
 7479 37ca 991F      		rol r25
 7480 37cc E80F      		add r30,r24
 7481 37ce F91F      		adc r31,r25
 7482 37d0 E050      		subi r30,lo8(-(bankStates))
 7483 37d2 F040      		sbci r31,hi8(-(bankStates))
 7484 37d4 358F      		std Z+29,r19
 7485               	.LM996:
 7486 37d6 822F      		mov r24,r18
 7487 37d8 0E94 0000 		call UpdateAdjustedSampleAddresses
 7488               	.LBE242:
 7489               	.LBE241:
 7490               	.LM997:
 7491 37dc 2091 0000 		lds r18,encoderValue
 7492 37e0 2695      		lsr r18
 7493 37e2 8091 0000 		lds r24,currentBank.3035
 7494 37e6 64E0      		ldi r22,lo8(4)
 7495 37e8 4EE1      		ldi r20,lo8(30)
 7496 37ea 00C0      		rjmp .L448
 7497               	.L385:
 7498               	.LM998:
 7499 37ec 8091 0000 		lds r24,newKeys
 7500 37f0 90E0      		ldi r25,lo8(0)
 7501 37f2 83FD      		sbrc r24,3
 7502 37f4 00C0      		rjmp .L386
 7503 37f6 8073      		andi r24,lo8(48)
 7504 37f8 9070      		andi r25,hi8(48)
 7505 37fa 892B      		or r24,r25
 7506 37fc 01F0      		breq .L361
 7507               	.L386:
 7508               	.LM999:
 7509 37fe 1092 0000 		sts editModeEntered.3040,__zero_reg__
 7510               	.LVL168:
 7511               	.L361:
 7512               	.LM1000:
 7513 3802 8091 0000 		lds r24,midiMessagesInIncomingFifo
 7514 3806 8823      		tst r24
 7515 3808 01F4      		brne .+2
 7516 380a 00C0      		rjmp .L355
 7517               	.LM1001:
 7518 380c 80E0      		ldi r24,lo8(currentMidiMessage.3036)
 7519 380e 90E0      		ldi r25,hi8(currentMidiMessage.3036)
 7520 3810 0E94 0000 		call GetMidiMessageFromIncomingFifo
 7521               	.LM1002:
 7522 3814 8091 0000 		lds r24,currentMidiMessage.3036+1
 7523 3818 8230      		cpi r24,lo8(2)
 7524 381a 01F4      		brne .L387
 7525               	.LM1003:
 7526 381c 8091 0000 		lds r24,currentMidiMessage.3036
 7527 3820 282F      		mov r18,r24
 7528 3822 30E0      		ldi r19,lo8(0)
 7529 3824 F901      		movw r30,r18
 7530 3826 EE0F      		lsl r30
 7531 3828 FF1F      		rol r31
 7532 382a C901      		movw r24,r18
 7533 382c 55E0      		ldi r21,5
 7534 382e 880F      	1:	lsl r24
 7535 3830 991F      		rol r25
 7536 3832 5A95      		dec r21
 7537 3834 01F4      		brne 1b
 7538 3836 E80F      		add r30,r24
 7539 3838 F91F      		adc r31,r25
 7540 383a E050      		subi r30,lo8(-(bankStates))
 7541 383c F040      		sbci r31,hi8(-(bankStates))
 7542 383e 8081      		ld r24,Z
 7543 3840 8430      		cpi r24,lo8(4)
 7544 3842 01F0      		breq .L388
 7545 3844 8081      		ld r24,Z
 7546 3846 8230      		cpi r24,lo8(2)
 7547 3848 01F0      		breq .+2
 7548 384a 00C0      		rjmp .L355
 7549               	.L388:
 7550               	.LM1004:
 7551 384c F901      		movw r30,r18
 7552 384e E050      		subi r30,lo8(-(currentNoteOn.3037))
 7553 3850 F040      		sbci r31,hi8(-(currentNoteOn.3037))
 7554 3852 9091 0000 		lds r25,currentMidiMessage.3036+2
 7555 3856 8081      		ld r24,Z
 7556 3858 9817      		cp r25,r24
 7557 385a 01F0      		breq .+2
 7558 385c 00C0      		rjmp .L355
 7559               	.LM1005:
 7560 385e F901      		movw r30,r18
 7561 3860 45E0      		ldi r20,5
 7562 3862 EE0F      	1:	lsl r30
 7563 3864 FF1F      		rol r31
 7564 3866 4A95      		dec r20
 7565 3868 01F4      		brne 1b
 7566 386a 220F      		lsl r18
 7567 386c 331F      		rol r19
 7568 386e E20F      		add r30,r18
 7569 3870 F31F      		adc r31,r19
 7570 3872 E050      		subi r30,lo8(-(bankStates))
 7571 3874 F040      		sbci r31,hi8(-(bankStates))
 7572 3876 1082      		st Z,__zero_reg__
 7573               	.LM1006:
 7574 3878 8091 0000 		lds r24,currentMidiMessage.3036
 7575 387c 00C0      		rjmp .L454
 7576               	.L387:
 7577               	.LM1007:
 7578 387e 8130      		cpi r24,lo8(1)
 7579 3880 01F4      		brne .L389
 7580               	.LM1008:
 7581 3882 1091 0000 		lds r17,currentMidiMessage.3036
 7582               	.LVL169:
 7583 3886 212F      		mov r18,r17
 7584 3888 30E0      		ldi r19,lo8(0)
 7585 388a F901      		movw r30,r18
 7586 388c E050      		subi r30,lo8(-(currentNoteOn.3037))
 7587 388e F040      		sbci r31,hi8(-(currentNoteOn.3037))
 7588 3890 6091 0000 		lds r22,currentMidiMessage.3036+2
 7589 3894 6083      		st Z,r22
 7590               	.LM1009:
 7591 3896 F901      		movw r30,r18
 7592 3898 E050      		subi r30,lo8(-(realtimeOn.3038))
 7593 389a F040      		sbci r31,hi8(-(realtimeOn.3038))
 7594 389c 8081      		ld r24,Z
 7595 389e 8823      		tst r24
 7596 38a0 01F0      		breq .L390
 7597               	.LM1010:
 7598 38a2 862F      		mov r24,r22
 7599 38a4 0E94 0000 		call GetPlaybackRateFromNote
 7600 38a8 AC01      		movw r20,r24
 7601 38aa 812F      		mov r24,r17
 7602 38ac 62E0      		ldi r22,lo8(2)
 7603 38ae 0E94 0000 		call StartRealtime
 7604 38b2 00C0      		rjmp .L355
 7605               	.L390:
 7606               	.LM1011:
 7607 38b4 F901      		movw r30,r18
 7608 38b6 85E0      		ldi r24,5
 7609 38b8 EE0F      	1:	lsl r30
 7610 38ba FF1F      		rol r31
 7611 38bc 8A95      		dec r24
 7612 38be 01F4      		brne 1b
 7613 38c0 220F      		lsl r18
 7614 38c2 331F      		rol r19
 7615 38c4 E20F      		add r30,r18
 7616 38c6 F31F      		adc r31,r19
 7617 38c8 E050      		subi r30,lo8(-(bankStates))
 7618 38ca F040      		sbci r31,hi8(-(bankStates))
 7619 38cc 2785      		ldd r18,Z+15
 7620 38ce 3089      		ldd r19,Z+16
 7621 38d0 4189      		ldd r20,Z+17
 7622 38d2 5289      		ldd r21,Z+18
 7623 38d4 8385      		ldd r24,Z+11
 7624 38d6 9485      		ldd r25,Z+12
 7625 38d8 A585      		ldd r26,Z+13
 7626 38da B685      		ldd r27,Z+14
 7627 38dc 2817      		cp r18,r24
 7628 38de 3907      		cpc r19,r25
 7629 38e0 4A07      		cpc r20,r26
 7630 38e2 5B07      		cpc r21,r27
 7631 38e4 01F4      		brne .+2
 7632 38e6 00C0      		rjmp .L355
 7633               	.LM1012:
 7634 38e8 862F      		mov r24,r22
 7635 38ea 0E94 0000 		call GetPlaybackRateFromNote
 7636 38ee AC01      		movw r20,r24
 7637 38f0 812F      		mov r24,r17
 7638 38f2 62E0      		ldi r22,lo8(2)
 7639 38f4 0E94 0000 		call StartPlayback
 7640 38f8 00C0      		rjmp .L355
 7641               	.LVL170:
 7642               	.L389:
 7643               	.LM1013:
 7644 38fa 8430      		cpi r24,lo8(4)
 7645 38fc 01F0      		breq .+2
 7646 38fe 00C0      		rjmp .L391
 7647               	.LM1014:
 7648 3900 8091 0000 		lds r24,currentMidiMessage.3036+2
 7649 3904 90E0      		ldi r25,lo8(0)
 7650 3906 FC01      		movw r30,r24
 7651 3908 3397      		sbiw r30,3
 7652 390a EC31      		cpi r30,28
 7653 390c F105      		cpc r31,__zero_reg__
 7654 390e 00F0      		brlo .+2
 7655 3910 00C0      		rjmp .L355
 7656 3912 E050      		subi r30,lo8(-(gs(.L411)))
 7657 3914 F040      		sbci r31,hi8(-(gs(.L411)))
 7658 3916 EE0F      		lsl r30
 7659 3918 FF1F      		rol r31
 7660 391a 0590      		lpm __tmp_reg__,Z+
 7661 391c F491      		lpm r31,Z
 7662 391e E02D      		mov r30,__tmp_reg__
 7663 3920 0994      		ijmp
 7664               		.data
 7665               		.section .progmem.gcc_sw_table, "a", @progbits
 7666               		.p2align 1
 7667               	.L411:
 7668               		.data
 7669               		.section .progmem.gcc_sw_table, "a", @progbits
 7670               		.p2align 1
 7671 0000 0000      		.word gs(.L392)
 7672 0002 0000      		.word gs(.L355)
 7673 0004 0000      		.word gs(.L355)
 7674 0006 0000      		.word gs(.L355)
 7675 0008 0000      		.word gs(.L355)
 7676 000a 0000      		.word gs(.L355)
 7677 000c 0000      		.word gs(.L393)
 7678 000e 0000      		.word gs(.L355)
 7679 0010 0000      		.word gs(.L355)
 7680 0012 0000      		.word gs(.L355)
 7681 0014 0000      		.word gs(.L355)
 7682 0016 0000      		.word gs(.L394)
 7683 0018 0000      		.word gs(.L395)
 7684 001a 0000      		.word gs(.L396)
 7685 001c 0000      		.word gs(.L397)
 7686 001e 0000      		.word gs(.L398)
 7687 0020 0000      		.word gs(.L399)
 7688 0022 0000      		.word gs(.L400)
 7689 0024 0000      		.word gs(.L401)
 7690 0026 0000      		.word gs(.L402)
 7691 0028 0000      		.word gs(.L403)
 7692 002a 0000      		.word gs(.L404)
 7693 002c 0000      		.word gs(.L405)
 7694 002e 0000      		.word gs(.L406)
 7695 0030 0000      		.word gs(.L407)
 7696 0032 0000      		.word gs(.L408)
 7697 0034 0000      		.word gs(.L409)
 7698 0036 0000      		.word gs(.L410)
 7699               		.text
 7700               	.L392:
 7701               	.LM1015:
 7702 3922 8091 0000 		lds r24,currentMidiMessage.3036+3
 7703 3926 8823      		tst r24
 7704 3928 01F0      		breq .L412
 7705               	.LM1016:
 7706 392a 8091 0000 		lds r24,currentMidiMessage.3036
 7707 392e E82F      		mov r30,r24
 7708 3930 F0E0      		ldi r31,lo8(0)
 7709 3932 EE0F      		lsl r30
 7710 3934 FF1F      		rol r31
 7711               	.LVL171:
 7712 3936 E050      		subi r30,lo8(-(theMidiRecordRate))
 7713 3938 F040      		sbci r31,hi8(-(theMidiRecordRate))
 7714 393a 4081      		ld r20,Z
 7715 393c 5181      		ldd r21,Z+1
 7716 393e 62E0      		ldi r22,lo8(2)
 7717 3940 0E94 0000 		call StartRecording
 7718 3944 00C0      		rjmp .L461
 7719               	.LVL172:
 7720               	.L412:
 7721               	.LM1017:
 7722 3946 2091 0000 		lds r18,currentMidiMessage.3036
 7723 394a 822F      		mov r24,r18
 7724 394c 90E0      		ldi r25,lo8(0)
 7725 394e FC01      		movw r30,r24
 7726 3950 B5E0      		ldi r27,5
 7727 3952 EE0F      	1:	lsl r30
 7728 3954 FF1F      		rol r31
 7729 3956 BA95      		dec r27
 7730 3958 01F4      		brne 1b
 7731 395a 880F      		lsl r24
 7732 395c 991F      		rol r25
 7733 395e E80F      		add r30,r24
 7734 3960 F91F      		adc r31,r25
 7735 3962 E050      		subi r30,lo8(-(bankStates))
 7736 3964 F040      		sbci r31,hi8(-(bankStates))
 7737 3966 8081      		ld r24,Z
 7738 3968 8330      		cpi r24,lo8(3)
 7739 396a 01F0      		breq .+2
 7740 396c 00C0      		rjmp .L355
 7741               	.LM1018:
 7742 396e 822F      		mov r24,r18
 7743 3970 90E0      		ldi r25,lo8(0)
 7744 3972 FC01      		movw r30,r24
 7745 3974 75E0      		ldi r23,5
 7746 3976 EE0F      	1:	lsl r30
 7747 3978 FF1F      		rol r31
 7748 397a 7A95      		dec r23
 7749 397c 01F4      		brne 1b
 7750 397e 880F      		lsl r24
 7751 3980 991F      		rol r25
 7752 3982 E80F      		add r30,r24
 7753 3984 F91F      		adc r31,r25
 7754 3986 E050      		subi r30,lo8(-(bankStates))
 7755 3988 F040      		sbci r31,hi8(-(bankStates))
 7756 398a 1082      		st Z,__zero_reg__
 7757               	.LM1019:
 7758 398c 822F      		mov r24,r18
 7759               	.L454:
 7760 398e 90E0      		ldi r25,lo8(0)
 7761 3990 FC01      		movw r30,r24
 7762 3992 55E0      		ldi r21,5
 7763 3994 EE0F      	1:	lsl r30
 7764 3996 FF1F      		rol r31
 7765 3998 5A95      		dec r21
 7766 399a 01F4      		brne 1b
 7767 399c 880F      		lsl r24
 7768 399e 991F      		rol r25
 7769 39a0 E80F      		add r30,r24
 7770 39a2 F91F      		adc r31,r25
 7771 39a4 E050      		subi r30,lo8(-(bankStates))
 7772 39a6 F040      		sbci r31,hi8(-(bankStates))
 7773 39a8 1086      		std Z+8,__zero_reg__
 7774 39aa 00C0      		rjmp .L355
 7775               	.L393:
 7776               	.LM1020:
 7777 39ac 8091 0000 		lds r24,currentMidiMessage.3036+3
 7778 39b0 8823      		tst r24
 7779 39b2 01F0      		breq .L413
 7780               	.LM1021:
 7781 39b4 6091 0000 		lds r22,currentMidiMessage.3036
 7782 39b8 C62F      		mov r28,r22
 7783 39ba D0E0      		ldi r29,lo8(0)
 7784 39bc FE01      		movw r30,r28
 7785 39be EE0F      		lsl r30
 7786 39c0 FF1F      		rol r31
 7787 39c2 CE01      		movw r24,r28
 7788 39c4 25E0      		ldi r18,5
 7789 39c6 880F      	1:	lsl r24
 7790 39c8 991F      		rol r25
 7791 39ca 2A95      		dec r18
 7792 39cc 01F4      		brne 1b
 7793 39ce E80F      		add r30,r24
 7794 39d0 F91F      		adc r31,r25
 7795 39d2 E050      		subi r30,lo8(-(bankStates))
 7796 39d4 F040      		sbci r31,hi8(-(bankStates))
 7797 39d6 2785      		ldd r18,Z+15
 7798 39d8 3089      		ldd r19,Z+16
 7799 39da 4189      		ldd r20,Z+17
 7800 39dc 5289      		ldd r21,Z+18
 7801 39de 8385      		ldd r24,Z+11
 7802 39e0 9485      		ldd r25,Z+12
 7803 39e2 A585      		ldd r26,Z+13
 7804 39e4 B685      		ldd r27,Z+14
 7805 39e6 2817      		cp r18,r24
 7806 39e8 3907      		cpc r19,r25
 7807 39ea 4A07      		cpc r20,r26
 7808 39ec 5B07      		cpc r21,r27
 7809 39ee 01F4      		brne .+2
 7810 39f0 00C0      		rjmp .L355
 7811               	.LM1022:
 7812 39f2 C050      		subi r28,lo8(-(currentNoteOn.3037))
 7813 39f4 D040      		sbci r29,hi8(-(currentNoteOn.3037))
 7814 39f6 4881      		ld r20,Y
 7815 39f8 862F      		mov r24,r22
 7816 39fa 62E0      		ldi r22,lo8(2)
 7817 39fc 50E0      		ldi r21,lo8(0)
 7818 39fe 0E94 0000 		call StartOverdub
 7819               	.L461:
 7820               	.LM1023:
 7821 3a02 E091 0000 		lds r30,currentMidiMessage.3036
 7822               	.L462:
 7823 3a06 F0E0      		ldi r31,lo8(0)
 7824 3a08 E050      		subi r30,lo8(-(realtimeOn.3038))
 7825 3a0a F040      		sbci r31,hi8(-(realtimeOn.3038))
 7826 3a0c 00C0      		rjmp .L453
 7827               	.L413:
 7828               	.LM1024:
 7829 3a0e 2091 0000 		lds r18,currentMidiMessage.3036
 7830 3a12 E22F      		mov r30,r18
 7831 3a14 F0E0      		ldi r31,lo8(0)
 7832 3a16 DF01      		movw r26,r30
 7833 3a18 AA0F      		lsl r26
 7834 3a1a BB1F      		rol r27
 7835 3a1c CF01      		movw r24,r30
 7836 3a1e 15E0      		ldi r17,5
 7837 3a20 880F      	1:	lsl r24
 7838 3a22 991F      		rol r25
 7839 3a24 1A95      		dec r17
 7840 3a26 01F4      		brne 1b
 7841               	.LVL173:
 7842 3a28 A80F      		add r26,r24
 7843 3a2a B91F      		adc r27,r25
 7844 3a2c A050      		subi r26,lo8(-(bankStates))
 7845 3a2e B040      		sbci r27,hi8(-(bankStates))
 7846 3a30 8C91      		ld r24,X
 7847 3a32 8530      		cpi r24,lo8(5)
 7848 3a34 01F0      		breq .+2
 7849 3a36 00C0      		rjmp .L355
 7850               	.LM1025:
 7851 3a38 E050      		subi r30,lo8(-(currentNoteOn.3037))
 7852 3a3a F040      		sbci r31,hi8(-(currentNoteOn.3037))
 7853 3a3c 4081      		ld r20,Z
 7854               	.LBB243:
 7855               	.LBB244:
 7856               	.LM1026:
 7857 3a3e 1FB7      		in r17,__SREG__
 7858               	.LVL174:
 7859               	.LM1027:
 7860               	/* #APP */
 7861               	 ;  2759 "WTPA.c" 1
 7862 3a40 F894      		cli
 7863               	 ;  0 "" 2
 7864               	.LM1028:
 7865               	/* #NOAPP */
 7866 3a42 84E0      		ldi r24,lo8(4)
 7867 3a44 8C93      		st X,r24
 7868               	.LM1029:
 7869 3a46 822F      		mov r24,r18
 7870 3a48 62E0      		ldi r22,lo8(2)
 7871 3a4a 50E0      		ldi r21,lo8(0)
 7872 3a4c 0E94 0000 		call SetSampleClock
 7873               	.LM1030:
 7874 3a50 1FBF      		out __SREG__,r17
 7875 3a52 00C0      		rjmp .L355
 7876               	.LVL175:
 7877               	.L394:
 7878               	.LBE244:
 7879               	.LBE243:
 7880               	.LM1031:
 7881 3a54 8091 0000 		lds r24,currentMidiMessage.3036+3
 7882 3a58 8823      		tst r24
 7883 3a5a 01F0      		breq .L414
 7884               	.LM1032:
 7885 3a5c 8091 0000 		lds r24,currentMidiMessage.3036
 7886 3a60 E82F      		mov r30,r24
 7887 3a62 F0E0      		ldi r31,lo8(0)
 7888 3a64 EE0F      		lsl r30
 7889 3a66 FF1F      		rol r31
 7890 3a68 E050      		subi r30,lo8(-(theMidiRecordRate))
 7891 3a6a F040      		sbci r31,hi8(-(theMidiRecordRate))
 7892 3a6c 4081      		ld r20,Z
 7893 3a6e 5181      		ldd r21,Z+1
 7894 3a70 62E0      		ldi r22,lo8(2)
 7895 3a72 0E94 0000 		call StartRealtime
 7896               	.LM1033:
 7897 3a76 E091 0000 		lds r30,currentMidiMessage.3036
 7898 3a7a F0E0      		ldi r31,lo8(0)
 7899 3a7c E050      		subi r30,lo8(-(realtimeOn.3038))
 7900 3a7e F040      		sbci r31,hi8(-(realtimeOn.3038))
 7901 3a80 00C0      		rjmp .L455
 7902               	.L414:
 7903               	.LM1034:
 7904 3a82 2091 0000 		lds r18,currentMidiMessage.3036
 7905 3a86 822F      		mov r24,r18
 7906 3a88 90E0      		ldi r25,lo8(0)
 7907 3a8a FC01      		movw r30,r24
 7908 3a8c A5E0      		ldi r26,5
 7909 3a8e EE0F      	1:	lsl r30
 7910 3a90 FF1F      		rol r31
 7911 3a92 AA95      		dec r26
 7912 3a94 01F4      		brne 1b
 7913 3a96 880F      		lsl r24
 7914 3a98 991F      		rol r25
 7915 3a9a E80F      		add r30,r24
 7916 3a9c F91F      		adc r31,r25
 7917 3a9e E050      		subi r30,lo8(-(bankStates))
 7918 3aa0 F040      		sbci r31,hi8(-(bankStates))
 7919 3aa2 8081      		ld r24,Z
 7920 3aa4 8230      		cpi r24,lo8(2)
 7921 3aa6 01F0      		breq .+2
 7922 3aa8 00C0      		rjmp .L355
 7923               	.LM1035:
 7924 3aaa 822F      		mov r24,r18
 7925 3aac 90E0      		ldi r25,lo8(0)
 7926 3aae FC01      		movw r30,r24
 7927 3ab0 65E0      		ldi r22,5
 7928 3ab2 EE0F      	1:	lsl r30
 7929 3ab4 FF1F      		rol r31
 7930 3ab6 6A95      		dec r22
 7931 3ab8 01F4      		brne 1b
 7932 3aba 880F      		lsl r24
 7933 3abc 991F      		rol r25
 7934 3abe E80F      		add r30,r24
 7935 3ac0 F91F      		adc r31,r25
 7936 3ac2 E050      		subi r30,lo8(-(bankStates))
 7937 3ac4 F040      		sbci r31,hi8(-(bankStates))
 7938 3ac6 1082      		st Z,__zero_reg__
 7939               	.LM1036:
 7940 3ac8 822F      		mov r24,r18
 7941 3aca 90E0      		ldi r25,lo8(0)
 7942 3acc FC01      		movw r30,r24
 7943 3ace 45E0      		ldi r20,5
 7944 3ad0 EE0F      	1:	lsl r30
 7945 3ad2 FF1F      		rol r31
 7946 3ad4 4A95      		dec r20
 7947 3ad6 01F4      		brne 1b
 7948 3ad8 880F      		lsl r24
 7949 3ada 991F      		rol r25
 7950 3adc E80F      		add r30,r24
 7951 3ade F91F      		adc r31,r25
 7952 3ae0 E050      		subi r30,lo8(-(bankStates))
 7953 3ae2 F040      		sbci r31,hi8(-(bankStates))
 7954 3ae4 1086      		std Z+8,__zero_reg__
 7955               	.LM1037:
 7956 3ae6 E22F      		mov r30,r18
 7957 3ae8 00C0      		rjmp .L462
 7958               	.L395:
 7959               	.LM1038:
 7960 3aea 8091 0000 		lds r24,currentMidiMessage.3036+3
 7961 3aee 8823      		tst r24
 7962 3af0 01F0      		breq .L415
 7963               	.LM1039:
 7964 3af2 8091 0000 		lds r24,currentMidiMessage.3036
 7965 3af6 90E0      		ldi r25,lo8(0)
 7966 3af8 FC01      		movw r30,r24
 7967 3afa 05E0      		ldi r16,5
 7968 3afc EE0F      	1:	lsl r30
 7969 3afe FF1F      		rol r31
 7970 3b00 0A95      		dec r16
 7971 3b02 01F4      		brne 1b
 7972 3b04 880F      		lsl r24
 7973 3b06 991F      		rol r25
 7974               	.LVL176:
 7975 3b08 E80F      		add r30,r24
 7976 3b0a F91F      		adc r31,r25
 7977 3b0c E050      		subi r30,lo8(-(bankStates))
 7978 3b0e F040      		sbci r31,hi8(-(bankStates))
 7979 3b10 1182      		std Z+1,__zero_reg__
 7980 3b12 00C0      		rjmp .L355
 7981               	.LVL177:
 7982               	.L415:
 7983               	.LM1040:
 7984 3b14 8091 0000 		lds r24,currentMidiMessage.3036
 7985 3b18 90E0      		ldi r25,lo8(0)
 7986 3b1a FC01      		movw r30,r24
 7987 3b1c B5E0      		ldi r27,5
 7988 3b1e EE0F      	1:	lsl r30
 7989 3b20 FF1F      		rol r31
 7990 3b22 BA95      		dec r27
 7991 3b24 01F4      		brne 1b
 7992 3b26 880F      		lsl r24
 7993 3b28 991F      		rol r25
 7994 3b2a E80F      		add r30,r24
 7995 3b2c F91F      		adc r31,r25
 7996 3b2e E050      		subi r30,lo8(-(bankStates))
 7997 3b30 F040      		sbci r31,hi8(-(bankStates))
 7998 3b32 81E0      		ldi r24,lo8(1)
 7999 3b34 8183      		std Z+1,r24
 8000 3b36 00C0      		rjmp .L355
 8001               	.L396:
 8002               	.LM1041:
 8003 3b38 8091 0000 		lds r24,currentMidiMessage.3036+3
 8004 3b3c 8823      		tst r24
 8005 3b3e 01F0      		breq .L416
 8006               	.LM1042:
 8007 3b40 8091 0000 		lds r24,currentMidiMessage.3036
 8008 3b44 90E0      		ldi r25,lo8(0)
 8009 3b46 FC01      		movw r30,r24
 8010 3b48 74E0      		ldi r23,4
 8011 3b4a EE0F      	1:	lsl r30
 8012 3b4c FF1F      		rol r31
 8013 3b4e 7A95      		dec r23
 8014 3b50 01F4      		brne 1b
 8015 3b52 E80F      		add r30,r24
 8016 3b54 F91F      		adc r31,r25
 8017 3b56 EE0F      		lsl r30
 8018 3b58 FF1F      		rol r31
 8019 3b5a E050      		subi r30,lo8(-(bankStates+2))
 8020 3b5c F040      		sbci r31,hi8(-(bankStates+2))
 8021               	.L455:
 8022 3b5e 81E0      		ldi r24,lo8(1)
 8023 3b60 8083      		st Z,r24
 8024 3b62 00C0      		rjmp .L355
 8025               	.L416:
 8026               	.LM1043:
 8027 3b64 8091 0000 		lds r24,currentMidiMessage.3036
 8028 3b68 90E0      		ldi r25,lo8(0)
 8029 3b6a FC01      		movw r30,r24
 8030 3b6c 54E0      		ldi r21,4
 8031 3b6e EE0F      	1:	lsl r30
 8032 3b70 FF1F      		rol r31
 8033 3b72 5A95      		dec r21
 8034 3b74 01F4      		brne 1b
 8035 3b76 E80F      		add r30,r24
 8036 3b78 F91F      		adc r31,r25
 8037 3b7a EE0F      		lsl r30
 8038 3b7c FF1F      		rol r31
 8039 3b7e E050      		subi r30,lo8(-(bankStates+2))
 8040 3b80 F040      		sbci r31,hi8(-(bankStates+2))
 8041               	.L453:
 8042 3b82 1082      		st Z,__zero_reg__
 8043 3b84 00C0      		rjmp .L355
 8044               	.L397:
 8045               	.LM1044:
 8046 3b86 8091 0000 		lds r24,currentMidiMessage.3036+3
 8047 3b8a 8823      		tst r24
 8048 3b8c 01F0      		breq .L417
 8049               	.LM1045:
 8050 3b8e 8091 0000 		lds r24,currentMidiMessage.3036
 8051 3b92 90E0      		ldi r25,lo8(0)
 8052 3b94 FC01      		movw r30,r24
 8053 3b96 35E0      		ldi r19,5
 8054 3b98 EE0F      	1:	lsl r30
 8055 3b9a FF1F      		rol r31
 8056 3b9c 3A95      		dec r19
 8057 3b9e 01F4      		brne 1b
 8058 3ba0 880F      		lsl r24
 8059 3ba2 991F      		rol r25
 8060 3ba4 E80F      		add r30,r24
 8061 3ba6 F91F      		adc r31,r25
 8062 3ba8 E050      		subi r30,lo8(-(bankStates))
 8063 3baa F040      		sbci r31,hi8(-(bankStates))
 8064 3bac 81E0      		ldi r24,lo8(1)
 8065 3bae 8383      		std Z+3,r24
 8066 3bb0 00C0      		rjmp .L418
 8067               	.L417:
 8068               	.LM1046:
 8069 3bb2 8091 0000 		lds r24,currentMidiMessage.3036
 8070 3bb6 90E0      		ldi r25,lo8(0)
 8071 3bb8 FC01      		movw r30,r24
 8072 3bba 05E0      		ldi r16,5
 8073 3bbc EE0F      	1:	lsl r30
 8074 3bbe FF1F      		rol r31
 8075 3bc0 0A95      		dec r16
 8076 3bc2 01F4      		brne 1b
 8077 3bc4 880F      		lsl r24
 8078 3bc6 991F      		rol r25
 8079               	.LVL178:
 8080 3bc8 E80F      		add r30,r24
 8081 3bca F91F      		adc r31,r25
 8082 3bcc E050      		subi r30,lo8(-(bankStates))
 8083 3bce F040      		sbci r31,hi8(-(bankStates))
 8084 3bd0 1382      		std Z+3,__zero_reg__
 8085               	.LVL179:
 8086               	.L418:
 8087               	.LM1047:
 8088 3bd2 8091 0000 		lds r24,currentMidiMessage.3036
 8089 3bd6 00C0      		rjmp .L450
 8090               	.L398:
 8091               	.LM1048:
 8092 3bd8 2091 0000 		lds r18,currentMidiMessage.3036
 8093 3bdc 822F      		mov r24,r18
 8094 3bde 90E0      		ldi r25,lo8(0)
 8095 3be0 FC01      		movw r30,r24
 8096 3be2 B5E0      		ldi r27,5
 8097 3be4 EE0F      	1:	lsl r30
 8098 3be6 FF1F      		rol r31
 8099 3be8 BA95      		dec r27
 8100 3bea 01F4      		brne 1b
 8101 3bec 880F      		lsl r24
 8102 3bee 991F      		rol r25
 8103 3bf0 E80F      		add r30,r24
 8104 3bf2 F91F      		adc r31,r25
 8105 3bf4 E050      		subi r30,lo8(-(bankStates))
 8106 3bf6 F040      		sbci r31,hi8(-(bankStates))
 8107 3bf8 1182      		std Z+1,__zero_reg__
 8108               	.LM1049:
 8109 3bfa 822F      		mov r24,r18
 8110 3bfc 90E0      		ldi r25,lo8(0)
 8111 3bfe FC01      		movw r30,r24
 8112 3c00 75E0      		ldi r23,5
 8113 3c02 EE0F      	1:	lsl r30
 8114 3c04 FF1F      		rol r31
 8115 3c06 7A95      		dec r23
 8116 3c08 01F4      		brne 1b
 8117 3c0a 880F      		lsl r24
 8118 3c0c 991F      		rol r25
 8119 3c0e E80F      		add r30,r24
 8120 3c10 F91F      		adc r31,r25
 8121 3c12 E050      		subi r30,lo8(-(bankStates))
 8122 3c14 F040      		sbci r31,hi8(-(bankStates))
 8123 3c16 1782      		std Z+7,__zero_reg__
 8124               	.LM1050:
 8125 3c18 822F      		mov r24,r18
 8126 3c1a 90E0      		ldi r25,lo8(0)
 8127 3c1c FC01      		movw r30,r24
 8128 3c1e 55E0      		ldi r21,5
 8129 3c20 EE0F      	1:	lsl r30
 8130 3c22 FF1F      		rol r31
 8131 3c24 5A95      		dec r21
 8132 3c26 01F4      		brne 1b
 8133 3c28 880F      		lsl r24
 8134 3c2a 991F      		rol r25
 8135 3c2c E80F      		add r30,r24
 8136 3c2e F91F      		adc r31,r25
 8137 3c30 E050      		subi r30,lo8(-(bankStates))
 8138 3c32 F040      		sbci r31,hi8(-(bankStates))
 8139 3c34 1682      		std Z+6,__zero_reg__
 8140               	.LM1051:
 8141 3c36 822F      		mov r24,r18
 8142 3c38 90E0      		ldi r25,lo8(0)
 8143 3c3a FC01      		movw r30,r24
 8144 3c3c 35E0      		ldi r19,5
 8145 3c3e EE0F      	1:	lsl r30
 8146 3c40 FF1F      		rol r31
 8147 3c42 3A95      		dec r19
 8148 3c44 01F4      		brne 1b
 8149 3c46 880F      		lsl r24
 8150 3c48 991F      		rol r25
 8151 3c4a E80F      		add r30,r24
 8152 3c4c F91F      		adc r31,r25
 8153 3c4e E050      		subi r30,lo8(-(bankStates))
 8154 3c50 F040      		sbci r31,hi8(-(bankStates))
 8155 3c52 1582      		std Z+5,__zero_reg__
 8156               	.LM1052:
 8157 3c54 A22F      		mov r26,r18
 8158 3c56 B0E0      		ldi r27,lo8(0)
 8159 3c58 FD01      		movw r30,r26
 8160 3c5a 14E0      		ldi r17,4
 8161 3c5c EE0F      	1:	lsl r30
 8162 3c5e FF1F      		rol r31
 8163 3c60 1A95      		dec r17
 8164 3c62 01F4      		brne 1b
 8165               	.LVL180:
 8166 3c64 EA0F      		add r30,r26
 8167 3c66 FB1F      		adc r31,r27
 8168 3c68 EE0F      		lsl r30
 8169 3c6a FF1F      		rol r31
 8170 3c6c E050      		subi r30,lo8(-(bankStates+2))
 8171 3c6e F040      		sbci r31,hi8(-(bankStates+2))
 8172 3c70 1082      		st Z,__zero_reg__
 8173               	.LM1053:
 8174 3c72 822F      		mov r24,r18
 8175 3c74 90E0      		ldi r25,lo8(0)
 8176 3c76 FC01      		movw r30,r24
 8177 3c78 65E0      		ldi r22,5
 8178 3c7a EE0F      	1:	lsl r30
 8179 3c7c FF1F      		rol r31
 8180 3c7e 6A95      		dec r22
 8181 3c80 01F4      		brne 1b
 8182 3c82 880F      		lsl r24
 8183 3c84 991F      		rol r25
 8184 3c86 E80F      		add r30,r24
 8185 3c88 F91F      		adc r31,r25
 8186 3c8a E050      		subi r30,lo8(-(bankStates))
 8187 3c8c F040      		sbci r31,hi8(-(bankStates))
 8188 3c8e 31E0      		ldi r19,lo8(1)
 8189 3c90 3483      		std Z+4,r19
 8190               	.LM1054:
 8191 3c92 822F      		mov r24,r18
 8192 3c94 90E0      		ldi r25,lo8(0)
 8193 3c96 FC01      		movw r30,r24
 8194 3c98 45E0      		ldi r20,5
 8195 3c9a EE0F      	1:	lsl r30
 8196 3c9c FF1F      		rol r31
 8197 3c9e 4A95      		dec r20
 8198 3ca0 01F4      		brne 1b
 8199 3ca2 880F      		lsl r24
 8200 3ca4 991F      		rol r25
 8201 3ca6 E80F      		add r30,r24
 8202 3ca8 F91F      		adc r31,r25
 8203 3caa E050      		subi r30,lo8(-(bankStates))
 8204 3cac F040      		sbci r31,hi8(-(bankStates))
 8205 3cae 1382      		std Z+3,__zero_reg__
 8206               	.LM1055:
 8207 3cb0 822F      		mov r24,r18
 8208 3cb2 90E0      		ldi r25,lo8(0)
 8209 3cb4 FC01      		movw r30,r24
 8210 3cb6 15E0      		ldi r17,5
 8211 3cb8 EE0F      	1:	lsl r30
 8212 3cba FF1F      		rol r31
 8213 3cbc 1A95      		dec r17
 8214 3cbe 01F4      		brne 1b
 8215 3cc0 880F      		lsl r24
 8216 3cc2 991F      		rol r25
 8217 3cc4 E80F      		add r30,r24
 8218 3cc6 F91F      		adc r31,r25
 8219 3cc8 E050      		subi r30,lo8(-(bankStates))
 8220 3cca F040      		sbci r31,hi8(-(bankStates))
 8221 3ccc 3483      		std Z+4,r19
 8222               	.LM1056:
 8223 3cce A050      		subi r26,lo8(-(realtimeOn.3038))
 8224 3cd0 B040      		sbci r27,hi8(-(realtimeOn.3038))
 8225 3cd2 1C92      		st X,__zero_reg__
 8226 3cd4 00C0      		rjmp .L419
 8227               	.LVL181:
 8228               	.L399:
 8229               	.LM1057:
 8230 3cd6 2091 0000 		lds r18,currentMidiMessage.3036+3
 8231 3cda 2830      		cpi r18,lo8(8)
 8232 3cdc 00F0      		brlo .+2
 8233 3cde 00C0      		rjmp .L355
 8234               	.LM1058:
 8235 3ce0 8091 0000 		lds r24,currentMidiMessage.3036
 8236 3ce4 90E0      		ldi r25,lo8(0)
 8237 3ce6 FC01      		movw r30,r24
 8238 3ce8 65E0      		ldi r22,5
 8239 3cea EE0F      	1:	lsl r30
 8240 3cec FF1F      		rol r31
 8241 3cee 6A95      		dec r22
 8242 3cf0 01F4      		brne 1b
 8243 3cf2 880F      		lsl r24
 8244 3cf4 991F      		rol r25
 8245 3cf6 E80F      		add r30,r24
 8246 3cf8 F91F      		adc r31,r25
 8247 3cfa E050      		subi r30,lo8(-(bankStates))
 8248 3cfc F040      		sbci r31,hi8(-(bankStates))
 8249 3cfe 2783      		std Z+7,r18
 8250 3d00 00C0      		rjmp .L355
 8251               	.L400:
 8252               	.LM1059:
 8253 3d02 8091 0000 		lds r24,currentMidiMessage.3036
 8254 3d06 6091 0000 		lds r22,currentMidiMessage.3036+3
 8255 3d0a 0E94 0000 		call MakeNewGranularArray
 8256 3d0e 00C0      		rjmp .L355
 8257               	.L401:
 8258               	.LM1060:
 8259 3d10 8091 0000 		lds r24,currentMidiMessage.3036+3
 8260 3d14 2091 0000 		lds r18,currentMidiMessage.3036
 8261 3d18 30E0      		ldi r19,lo8(0)
 8262 3d1a F901      		movw r30,r18
 8263 3d1c 45E0      		ldi r20,5
 8264 3d1e EE0F      	1:	lsl r30
 8265 3d20 FF1F      		rol r31
 8266 3d22 4A95      		dec r20
 8267 3d24 01F4      		brne 1b
 8268 3d26 220F      		lsl r18
 8269 3d28 331F      		rol r19
 8270 3d2a E20F      		add r30,r18
 8271 3d2c F31F      		adc r31,r19
 8272 3d2e E050      		subi r30,lo8(-(bankStates))
 8273 3d30 F040      		sbci r31,hi8(-(bankStates))
 8274 3d32 8683      		std Z+6,r24
 8275 3d34 00C0      		rjmp .L355
 8276               	.L402:
 8277               	.LM1061:
 8278 3d36 8091 0000 		lds r24,currentMidiMessage.3036+3
 8279 3d3a 8130      		cpi r24,lo8(1)
 8280 3d3c 01F0      		breq .L420
 8281 3d3e 8130      		cpi r24,lo8(1)
 8282 3d40 00F0      		brlo .L419
 8283 3d42 8230      		cpi r24,lo8(2)
 8284 3d44 01F0      		breq .L421
 8285 3d46 8330      		cpi r24,lo8(3)
 8286 3d48 01F0      		breq .+2
 8287 3d4a 00C0      		rjmp .L355
 8288 3d4c 00C0      		rjmp .L466
 8289               	.L419:
 8290               	.LM1062:
 8291 3d4e 80E0      		ldi r24,lo8(gs(OutputAddBanks))
 8292 3d50 90E0      		ldi r25,hi8(gs(OutputAddBanks))
 8293 3d52 00C0      		rjmp .L452
 8294               	.L420:
 8295               	.LM1063:
 8296 3d54 80E0      		ldi r24,lo8(gs(OutputMultiplyBanks))
 8297 3d56 90E0      		ldi r25,hi8(gs(OutputMultiplyBanks))
 8298 3d58 00C0      		rjmp .L452
 8299               	.L421:
 8300               	.LM1064:
 8301 3d5a 80E0      		ldi r24,lo8(gs(OutputAndBanks))
 8302 3d5c 90E0      		ldi r25,hi8(gs(OutputAndBanks))
 8303 3d5e 00C0      		rjmp .L452
 8304               	.L466:
 8305               	.LM1065:
 8306 3d60 80E0      		ldi r24,lo8(gs(OutputXorBanks))
 8307 3d62 90E0      		ldi r25,hi8(gs(OutputXorBanks))
 8308               	.L452:
 8309 3d64 9093 0000 		sts (UpdateOutput)+1,r25
 8310 3d68 8093 0000 		sts UpdateOutput,r24
 8311 3d6c 00C0      		rjmp .L355
 8312               	.L403:
 8313               	.LM1066:
 8314 3d6e CFB6      		in r12,__SREG__
 8315               	.LVL182:
 8316               	.LM1067:
 8317               	/* #APP */
 8318               	 ;  3960 "WTPA.c" 1
 8319 3d70 F894      		cli
 8320               	 ;  0 "" 2
 8321               	.LM1068:
 8322               	/* #NOAPP */
 8323 3d72 D090 0000 		lds r13,currentMidiMessage.3036
 8324 3d76 0D2D      		mov r16,r13
 8325 3d78 10E0      		ldi r17,lo8(0)
 8326               	.LVL183:
 8327 3d7a 80E0      		ldi r24,lo8(currentNoteOn.3037)
 8328 3d7c E82E      		mov r14,r24
 8329 3d7e 80E0      		ldi r24,hi8(currentNoteOn.3037)
 8330 3d80 F82E      		mov r15,r24
 8331 3d82 E00E      		add r14,r16
 8332 3d84 F11E      		adc r15,r17
 8333 3d86 F701      		movw r30,r14
 8334 3d88 8081      		ld r24,Z
 8335 3d8a 0E94 0000 		call GetPlaybackRateFromNote
 8336 3d8e 000F      		lsl r16
 8337 3d90 111F      		rol r17
 8338 3d92 0050      		subi r16,lo8(-(theMidiRecordRate))
 8339 3d94 1040      		sbci r17,hi8(-(theMidiRecordRate))
 8340 3d96 F801      		movw r30,r16
 8341 3d98 9183      		std Z+1,r25
 8342 3d9a 8083      		st Z,r24
 8343               	.LM1069:
 8344 3d9c F701      		movw r30,r14
 8345 3d9e 6081      		ld r22,Z
 8346               	.LBB245:
 8347               	.LBB246:
 8348               	.LM1070:
 8349 3da0 DD20      		tst r13
 8350 3da2 01F4      		brne .L423
 8351               	.LM1071:
 8352 3da4 87E0      		ldi r24,lo8(7)
 8353 3da6 90E0      		ldi r25,hi8(7)
 8354 3da8 00C0      		rjmp .L449
 8355               	.L423:
 8356               	.LM1072:
 8357 3daa F1E0      		ldi r31,lo8(1)
 8358 3dac DF16      		cp r13,r31
 8359 3dae 01F4      		brne .L424
 8360               	.LM1073:
 8361 3db0 8BE0      		ldi r24,lo8(11)
 8362 3db2 90E0      		ldi r25,hi8(11)
 8363               	.L449:
 8364 3db4 0E94 0000 		call EepromWrite
 8365               	.L424:
 8366               	.LBE246:
 8367               	.LBE245:
 8368               	.LM1074:
 8369 3db8 CFBE      		out __SREG__,r12
 8370 3dba 00C0      		rjmp .L355
 8371               	.LVL184:
 8372               	.L404:
 8373               	.LM1075:
 8374 3dbc 8091 0000 		lds r24,currentMidiMessage.3036
 8375 3dc0 9091 0000 		lds r25,currentMidiMessage.3036+3
 8376               	.LBB247:
 8377               	.LBB248:
 8378               	.LM1076:
 8379 3dc4 282F      		mov r18,r24
 8380 3dc6 30E0      		ldi r19,lo8(0)
 8381 3dc8 F901      		movw r30,r18
 8382 3dca A5E0      		ldi r26,5
 8383 3dcc EE0F      	1:	lsl r30
 8384 3dce FF1F      		rol r31
 8385 3dd0 AA95      		dec r26
 8386 3dd2 01F4      		brne 1b
 8387 3dd4 220F      		lsl r18
 8388 3dd6 331F      		rol r19
 8389 3dd8 E20F      		add r30,r18
 8390 3dda F31F      		adc r31,r19
 8391 3ddc E050      		subi r30,lo8(-(bankStates))
 8392 3dde F040      		sbci r31,hi8(-(bankStates))
 8393 3de0 938F      		std Z+27,r25
 8394 3de2 00C0      		rjmp .L450
 8395               	.L405:
 8396               	.LBE248:
 8397               	.LBE247:
 8398               	.LM1077:
 8399 3de4 8091 0000 		lds r24,currentMidiMessage.3036
 8400 3de8 9091 0000 		lds r25,currentMidiMessage.3036+3
 8401               	.LBB249:
 8402               	.LBB250:
 8403               	.LM1078:
 8404 3dec 282F      		mov r18,r24
 8405 3dee 30E0      		ldi r19,lo8(0)
 8406 3df0 F901      		movw r30,r18
 8407 3df2 65E0      		ldi r22,5
 8408 3df4 EE0F      	1:	lsl r30
 8409 3df6 FF1F      		rol r31
 8410 3df8 6A95      		dec r22
 8411 3dfa 01F4      		brne 1b
 8412 3dfc 220F      		lsl r18
 8413 3dfe 331F      		rol r19
 8414 3e00 E20F      		add r30,r18
 8415 3e02 F31F      		adc r31,r19
 8416 3e04 E050      		subi r30,lo8(-(bankStates))
 8417 3e06 F040      		sbci r31,hi8(-(bankStates))
 8418 3e08 948F      		std Z+28,r25
 8419 3e0a 00C0      		rjmp .L450
 8420               	.L406:
 8421               	.LBE250:
 8422               	.LBE249:
 8423               	.LM1079:
 8424 3e0c 8091 0000 		lds r24,currentMidiMessage.3036
 8425 3e10 9091 0000 		lds r25,currentMidiMessage.3036+3
 8426               	.LBB251:
 8427               	.LBB252:
 8428               	.LM1080:
 8429 3e14 282F      		mov r18,r24
 8430 3e16 30E0      		ldi r19,lo8(0)
 8431 3e18 F901      		movw r30,r18
 8432 3e1a 45E0      		ldi r20,5
 8433 3e1c EE0F      	1:	lsl r30
 8434 3e1e FF1F      		rol r31
 8435 3e20 4A95      		dec r20
 8436 3e22 01F4      		brne 1b
 8437 3e24 220F      		lsl r18
 8438 3e26 331F      		rol r19
 8439 3e28 E20F      		add r30,r18
 8440 3e2a F31F      		adc r31,r19
 8441 3e2c E050      		subi r30,lo8(-(bankStates))
 8442 3e2e F040      		sbci r31,hi8(-(bankStates))
 8443 3e30 958F      		std Z+29,r25
 8444 3e32 00C0      		rjmp .L450
 8445               	.L407:
 8446               	.LBE252:
 8447               	.LBE251:
 8448               	.LM1081:
 8449 3e34 6091 0000 		lds r22,currentMidiMessage.3036
 8450               	.LBB253:
 8451               	.LBB254:
 8452               	.LM1082:
 8453 3e38 7FB7      		in r23,__SREG__
 8454               	.LVL185:
 8455               	.LM1083:
 8456               	/* #APP */
 8457               	 ;  3457 "WTPA.c" 1
 8458 3e3a F894      		cli
 8459               	 ;  0 "" 2
 8460               	.LM1084:
 8461               	/* #NOAPP */
 8462 3e3c 862F      		mov r24,r22
 8463 3e3e 90E0      		ldi r25,lo8(0)
 8464 3e40 FC01      		movw r30,r24
 8465 3e42 15E0      		ldi r17,5
 8466 3e44 EE0F      	1:	lsl r30
 8467 3e46 FF1F      		rol r31
 8468 3e48 1A95      		dec r17
 8469 3e4a 01F4      		brne 1b
 8470               	.LVL186:
 8471 3e4c 880F      		lsl r24
 8472 3e4e 991F      		rol r25
 8473 3e50 E80F      		add r30,r24
 8474 3e52 F91F      		adc r31,r25
 8475 3e54 E050      		subi r30,lo8(-(bankStates))
 8476 3e56 F040      		sbci r31,hi8(-(bankStates))
 8477 3e58 2785      		ldd r18,Z+15
 8478 3e5a 3089      		ldd r19,Z+16
 8479 3e5c 4189      		ldd r20,Z+17
 8480 3e5e 5289      		ldd r21,Z+18
 8481 3e60 862F      		mov r24,r22
 8482 3e62 90E0      		ldi r25,lo8(0)
 8483 3e64 FC01      		movw r30,r24
 8484 3e66 A5E0      		ldi r26,5
 8485 3e68 EE0F      	1:	lsl r30
 8486 3e6a FF1F      		rol r31
 8487 3e6c AA95      		dec r26
 8488 3e6e 01F4      		brne 1b
 8489 3e70 880F      		lsl r24
 8490 3e72 991F      		rol r25
 8491 3e74 E80F      		add r30,r24
 8492 3e76 F91F      		adc r31,r25
 8493 3e78 E050      		subi r30,lo8(-(bankStates))
 8494 3e7a F040      		sbci r31,hi8(-(bankStates))
 8495 3e7c 278B      		std Z+23,r18
 8496 3e7e 308F      		std Z+24,r19
 8497 3e80 418F      		std Z+25,r20
 8498 3e82 528F      		std Z+26,r21
 8499               	.LM1085:
 8500 3e84 862F      		mov r24,r22
 8501 3e86 90E0      		ldi r25,lo8(0)
 8502 3e88 FC01      		movw r30,r24
 8503 3e8a 15E0      		ldi r17,5
 8504 3e8c EE0F      	1:	lsl r30
 8505 3e8e FF1F      		rol r31
 8506 3e90 1A95      		dec r17
 8507 3e92 01F4      		brne 1b
 8508 3e94 880F      		lsl r24
 8509 3e96 991F      		rol r25
 8510 3e98 E80F      		add r30,r24
 8511 3e9a F91F      		adc r31,r25
 8512 3e9c E050      		subi r30,lo8(-(bankStates))
 8513 3e9e F040      		sbci r31,hi8(-(bankStates))
 8514 3ea0 2385      		ldd r18,Z+11
 8515 3ea2 3485      		ldd r19,Z+12
 8516 3ea4 4585      		ldd r20,Z+13
 8517 3ea6 5685      		ldd r21,Z+14
 8518 3ea8 862F      		mov r24,r22
 8519 3eaa 90E0      		ldi r25,lo8(0)
 8520 3eac FC01      		movw r30,r24
 8521 3eae A5E0      		ldi r26,5
 8522 3eb0 EE0F      	1:	lsl r30
 8523 3eb2 FF1F      		rol r31
 8524 3eb4 AA95      		dec r26
 8525 3eb6 01F4      		brne 1b
 8526 3eb8 880F      		lsl r24
 8527 3eba 991F      		rol r25
 8528 3ebc E80F      		add r30,r24
 8529 3ebe F91F      		adc r31,r25
 8530 3ec0 E050      		subi r30,lo8(-(bankStates))
 8531 3ec2 F040      		sbci r31,hi8(-(bankStates))
 8532 3ec4 238B      		std Z+19,r18
 8533 3ec6 348B      		std Z+20,r19
 8534 3ec8 458B      		std Z+21,r20
 8535 3eca 568B      		std Z+22,r21
 8536               	.LM1086:
 8537 3ecc 862F      		mov r24,r22
 8538 3ece 90E0      		ldi r25,lo8(0)
 8539 3ed0 FC01      		movw r30,r24
 8540 3ed2 15E0      		ldi r17,5
 8541 3ed4 EE0F      	1:	lsl r30
 8542 3ed6 FF1F      		rol r31
 8543 3ed8 1A95      		dec r17
 8544 3eda 01F4      		brne 1b
 8545 3edc 880F      		lsl r24
 8546 3ede 991F      		rol r25
 8547 3ee0 E80F      		add r30,r24
 8548 3ee2 F91F      		adc r31,r25
 8549 3ee4 E050      		subi r30,lo8(-(bankStates))
 8550 3ee6 F040      		sbci r31,hi8(-(bankStates))
 8551 3ee8 138E      		std Z+27,__zero_reg__
 8552               	.LM1087:
 8553 3eea 862F      		mov r24,r22
 8554 3eec 90E0      		ldi r25,lo8(0)
 8555 3eee FC01      		movw r30,r24
 8556 3ef0 A5E0      		ldi r26,5
 8557 3ef2 EE0F      	1:	lsl r30
 8558 3ef4 FF1F      		rol r31
 8559 3ef6 AA95      		dec r26
 8560 3ef8 01F4      		brne 1b
 8561 3efa 880F      		lsl r24
 8562 3efc 991F      		rol r25
 8563 3efe E80F      		add r30,r24
 8564 3f00 F91F      		adc r31,r25
 8565 3f02 E050      		subi r30,lo8(-(bankStates))
 8566 3f04 F040      		sbci r31,hi8(-(bankStates))
 8567 3f06 148E      		std Z+28,__zero_reg__
 8568               	.LM1088:
 8569 3f08 862F      		mov r24,r22
 8570 3f0a 90E0      		ldi r25,lo8(0)
 8571 3f0c FC01      		movw r30,r24
 8572 3f0e 45E0      		ldi r20,5
 8573 3f10 EE0F      	1:	lsl r30
 8574 3f12 FF1F      		rol r31
 8575 3f14 4A95      		dec r20
 8576 3f16 01F4      		brne 1b
 8577 3f18 880F      		lsl r24
 8578 3f1a 991F      		rol r25
 8579 3f1c E80F      		add r30,r24
 8580 3f1e F91F      		adc r31,r25
 8581 3f20 E050      		subi r30,lo8(-(bankStates))
 8582 3f22 F040      		sbci r31,hi8(-(bankStates))
 8583 3f24 158E      		std Z+29,__zero_reg__
 8584               	.LM1089:
 8585 3f26 7FBF      		out __SREG__,r23
 8586 3f28 00C0      		rjmp .L355
 8587               	.LVL187:
 8588               	.L408:
 8589               	.LBE254:
 8590               	.LBE253:
 8591               	.LM1090:
 8592 3f2a 8091 0000 		lds r24,currentMidiMessage.3036
 8593 3f2e 4091 0000 		lds r20,currentMidiMessage.3036+3
 8594 3f32 50E0      		ldi r21,lo8(0)
 8595 3f34 440F      		lsl r20
 8596 3f36 551F      		rol r21
 8597               	.LBB255:
 8598               	.LBB256:
 8599               	.LM1091:
 8600 3f38 282F      		mov r18,r24
 8601 3f3a 30E0      		ldi r19,lo8(0)
 8602 3f3c F901      		movw r30,r18
 8603 3f3e 95E0      		ldi r25,5
 8604 3f40 EE0F      	1:	lsl r30
 8605 3f42 FF1F      		rol r31
 8606 3f44 9A95      		dec r25
 8607 3f46 01F4      		brne 1b
 8608 3f48 220F      		lsl r18
 8609 3f4a 331F      		rol r19
 8610 3f4c E20F      		add r30,r18
 8611 3f4e F31F      		adc r31,r19
 8612 3f50 E050      		subi r30,lo8(-(bankStates))
 8613 3f52 F040      		sbci r31,hi8(-(bankStates))
 8614 3f54 438F      		std Z+27,r20
 8615 3f56 00C0      		rjmp .L450
 8616               	.L409:
 8617               	.LBE256:
 8618               	.LBE255:
 8619               	.LM1092:
 8620 3f58 8091 0000 		lds r24,currentMidiMessage.3036
 8621 3f5c 4091 0000 		lds r20,currentMidiMessage.3036+3
 8622 3f60 50E0      		ldi r21,lo8(0)
 8623 3f62 440F      		lsl r20
 8624 3f64 551F      		rol r21
 8625               	.LVL188:
 8626               	.LBB257:
 8627               	.LBB258:
 8628               	.LM1093:
 8629 3f66 282F      		mov r18,r24
 8630 3f68 30E0      		ldi r19,lo8(0)
 8631 3f6a F901      		movw r30,r18
 8632 3f6c B5E0      		ldi r27,5
 8633 3f6e EE0F      	1:	lsl r30
 8634 3f70 FF1F      		rol r31
 8635 3f72 BA95      		dec r27
 8636 3f74 01F4      		brne 1b
 8637 3f76 220F      		lsl r18
 8638 3f78 331F      		rol r19
 8639 3f7a E20F      		add r30,r18
 8640 3f7c F31F      		adc r31,r19
 8641 3f7e E050      		subi r30,lo8(-(bankStates))
 8642 3f80 F040      		sbci r31,hi8(-(bankStates))
 8643 3f82 448F      		std Z+28,r20
 8644 3f84 00C0      		rjmp .L450
 8645               	.LVL189:
 8646               	.L410:
 8647               	.LBE258:
 8648               	.LBE257:
 8649               	.LM1094:
 8650 3f86 8091 0000 		lds r24,currentMidiMessage.3036
 8651 3f8a 4091 0000 		lds r20,currentMidiMessage.3036+3
 8652 3f8e 50E0      		ldi r21,lo8(0)
 8653 3f90 440F      		lsl r20
 8654 3f92 551F      		rol r21
 8655               	.LBB259:
 8656               	.LBB260:
 8657               	.LM1095:
 8658 3f94 282F      		mov r18,r24
 8659 3f96 30E0      		ldi r19,lo8(0)
 8660 3f98 F901      		movw r30,r18
 8661 3f9a 65E0      		ldi r22,5
 8662 3f9c EE0F      	1:	lsl r30
 8663 3f9e FF1F      		rol r31
 8664 3fa0 6A95      		dec r22
 8665 3fa2 01F4      		brne 1b
 8666 3fa4 220F      		lsl r18
 8667 3fa6 331F      		rol r19
 8668 3fa8 E20F      		add r30,r18
 8669 3faa F31F      		adc r31,r19
 8670 3fac E050      		subi r30,lo8(-(bankStates))
 8671 3fae F040      		sbci r31,hi8(-(bankStates))
 8672 3fb0 458F      		std Z+29,r20
 8673               	.L450:
 8674               	.LM1096:
 8675 3fb2 0E94 0000 		call UpdateAdjustedSampleAddresses
 8676 3fb6 00C0      		rjmp .L355
 8677               	.L391:
 8678               	.LBE260:
 8679               	.LBE259:
 8680               	.LM1097:
 8681 3fb8 8730      		cpi r24,lo8(7)
 8682 3fba 01F0      		breq .+2
 8683 3fbc 00C0      		rjmp .L355
 8684               	.LM1098:
 8685 3fbe 8091 0000 		lds r24,currentMidiMessage.3036+3
 8686 3fc2 C82F      		mov r28,r24
 8687               	.LVL190:
 8688 3fc4 D0E0      		ldi r29,lo8(0)
 8689               	.LVL191:
 8690 3fc6 D695      		lsr r29
 8691 3fc8 DC2F      		mov r29,r28
 8692 3fca CC27      		clr r28
 8693 3fcc D795      		ror r29
 8694 3fce C795      		ror r28
 8695               	.LVL192:
 8696 3fd0 8091 0000 		lds r24,currentMidiMessage.3036+2
 8697 3fd4 C80F      		add r28,r24
 8698 3fd6 D11D      		adc r29,__zero_reg__
 8699               	.LM1099:
 8700 3fd8 80E2      		ldi r24,hi8(8192)
 8701 3fda C030      		cpi r28,lo8(8192)
 8702 3fdc D807      		cpc r29,r24
 8703 3fde 01F0      		breq .L425
 8704 3fe0 0091 0000 		lds r16,currentMidiMessage.3036
 8705               	.LM1100:
 8706 3fe4 E0E2      		ldi r30,hi8(8192)
 8707 3fe6 C030      		cpi r28,lo8(8192)
 8708 3fe8 DE07      		cpc r29,r30
 8709 3fea 00F4      		brsh .L426
 8710               	.LM1101:
 8711 3fec 10E0      		ldi r17,lo8(0)
 8712               	.LVL193:
 8713 3fee F801      		movw r30,r16
 8714 3ff0 E050      		subi r30,lo8(-(currentNoteOn.3037))
 8715 3ff2 F040      		sbci r31,hi8(-(currentNoteOn.3037))
 8716 3ff4 8081      		ld r24,Z
 8717 3ff6 0E94 0000 		call GetPlaybackRateFromNote
 8718 3ffa 00C0      		rjmp .L463
 8719               	.LVL194:
 8720               	.L426:
 8721               	.LM1102:
 8722 3ffc 10E0      		ldi r17,lo8(0)
 8723               	.LVL195:
 8724 3ffe F801      		movw r30,r16
 8725 4000 E050      		subi r30,lo8(-(currentNoteOn.3037))
 8726 4002 F040      		sbci r31,hi8(-(currentNoteOn.3037))
 8727 4004 8081      		ld r24,Z
 8728 4006 0E94 0000 		call GetPlaybackRateFromNote
 8729               	.L463:
 8730 400a 8050      		subi r24,lo8(-(8192))
 8731 400c 904E      		sbci r25,hi8(-(8192))
 8732 400e 8C1B      		sub r24,r28
 8733 4010 9D0B      		sbc r25,r29
 8734 4012 00C0      		rjmp .L451
 8735               	.LVL196:
 8736               	.L425:
 8737               	.LM1103:
 8738 4014 0091 0000 		lds r16,currentMidiMessage.3036
 8739 4018 10E0      		ldi r17,lo8(0)
 8740               	.LVL197:
 8741 401a F801      		movw r30,r16
 8742 401c E050      		subi r30,lo8(-(currentNoteOn.3037))
 8743 401e F040      		sbci r31,hi8(-(currentNoteOn.3037))
 8744 4020 8081      		ld r24,Z
 8745 4022 0E94 0000 		call GetPlaybackRateFromNote
 8746               	.L451:
 8747 4026 F801      		movw r30,r16
 8748 4028 35E0      		ldi r19,5
 8749 402a EE0F      	1:	lsl r30
 8750 402c FF1F      		rol r31
 8751 402e 3A95      		dec r19
 8752 4030 01F4      		brne 1b
 8753 4032 000F      		lsl r16
 8754 4034 111F      		rol r17
 8755 4036 E00F      		add r30,r16
 8756 4038 F11F      		adc r31,r17
 8757 403a E050      		subi r30,lo8(-(bankStates))
 8758 403c F040      		sbci r31,hi8(-(bankStates))
 8759 403e 9287      		std Z+10,r25
 8760 4040 8187      		std Z+9,r24
 8761               	.LVL198:
 8762               	.L355:
 8763               	.LBB261:
 8764               	.LBB262:
 8765               	.LM1104:
 8766 4042 8091 0000 		lds r24,bankStates+8
 8767 4046 8130      		cpi r24,lo8(1)
 8768 4048 01F0      		breq .L427
 8769               	.LM1105:
 8770 404a 1092 0000 		sts extIsrOutputBank0,__zero_reg__
 8771               	.LM1106:
 8772 404e 8091 6F00 		lds r24,111
 8773 4052 8F7D      		andi r24,lo8(-33)
 8774 4054 8093 6F00 		sts 111,r24
 8775               	.LM1107:
 8776 4058 B59A      		sbi 54-32,5
 8777               	.L427:
 8778               	.LM1108:
 8779 405a 8091 0000 		lds r24,bankStates+42
 8780 405e 8130      		cpi r24,lo8(1)
 8781 4060 01F0      		breq .L428
 8782               	.LM1109:
 8783 4062 1092 0000 		sts extIsrOutputBank1,__zero_reg__
 8784               	.LM1110:
 8785 4066 1092 6800 		sts 104,__zero_reg__
 8786               	.LM1111:
 8787 406a 1092 6D00 		sts 109,__zero_reg__
 8788               	.L428:
 8789               	.LM1112:
 8790 406e 8091 0000 		lds r24,bankStates+8
 8791 4072 8230      		cpi r24,lo8(2)
 8792 4074 01F0      		breq .L429
 8793               	.LM1113:
 8794 4076 1092 0000 		sts midiOutputBank0,__zero_reg__
 8795               	.LM1114:
 8796 407a 8091 6F00 		lds r24,111
 8797 407e 8D7F      		andi r24,lo8(-3)
 8798 4080 8093 6F00 		sts 111,r24
 8799               	.LM1115:
 8800 4084 B19A      		sbi 54-32,1
 8801               	.L429:
 8802               	.LM1116:
 8803 4086 8091 0000 		lds r24,bankStates+42
 8804 408a 8230      		cpi r24,lo8(2)
 8805 408c 01F0      		breq .L430
 8806               	.LM1117:
 8807 408e 1092 0000 		sts midiOutputBank1,__zero_reg__
 8808               	.LM1118:
 8809 4092 8091 6F00 		lds r24,111
 8810 4096 8B7F      		andi r24,lo8(-5)
 8811 4098 8093 6F00 		sts 111,r24
 8812               	.LM1119:
 8813 409c B29A      		sbi 54-32,2
 8814               	.L430:
 8815               	.LM1120:
 8816 409e 8091 0000 		lds r24,bankStates+8
 8817 40a2 8823      		tst r24
 8818 40a4 01F4      		brne .L431
 8819               	.LM1121:
 8820 40a6 1092 0000 		sts extIsrOutputBank0,__zero_reg__
 8821               	.LM1122:
 8822 40aa 1092 0000 		sts midiOutputBank0,__zero_reg__
 8823               	.L431:
 8824               	.LM1123:
 8825 40ae 8091 0000 		lds r24,bankStates+42
 8826 40b2 8823      		tst r24
 8827 40b4 01F4      		brne .L432
 8828               	.LM1124:
 8829 40b6 1092 0000 		sts extIsrOutputBank1,__zero_reg__
 8830               	.LM1125:
 8831 40ba 1092 0000 		sts midiOutputBank1,__zero_reg__
 8832               	.L432:
 8833               	.LBE262:
 8834               	.LBE261:
 8835               	.LBB263:
 8836               	.LBB264:
 8837               	.LM1126:
 8838 40be 8091 0000 		lds r24,encoderValue
 8839 40c2 8295      		swap r24
 8840 40c4 8695      		lsr r24
 8841 40c6 8770      		andi r24,lo8(7)
 8842 40c8 8093 0000 		sts scaledEncoderValue,r24
 8843               	.LM1127:
 8844 40cc 9091 0000 		lds r25,ledOnOffMask
 8845               	.LVL199:
 8846 40d0 9F71      		andi r25,lo8(31)
 8847               	.LBE264:
 8848               	.LM1128:
 8849 40d2 80FD      		sbrc r24,0
 8850               	.LBB265:
 8851               	.LM1129:
 8852 40d4 9068      		ori r25,lo8(-128)
 8853               	.L433:
 8854               	.LM1130:
 8855 40d6 81FD      		sbrc r24,1
 8856               	.LM1131:
 8857 40d8 9064      		ori r25,lo8(64)
 8858               	.L434:
 8859               	.LM1132:
 8860 40da 82FD      		sbrc r24,2
 8861               	.LM1133:
 8862 40dc 9062      		ori r25,lo8(32)
 8863               	.L435:
 8864               	.LM1134:
 8865 40de 9093 0000 		sts ledOnOffMask,r25
 8866               	.LBE265:
 8867               	.LBE263:
 8868               	.LM1135:
 8869 40e2 6091 0000 		lds r22,currentBank.3035
 8870               	.LBB266:
 8871               	.LBB267:
 8872               	.LM1136:
 8873 40e6 292F      		mov r18,r25
 8874               	.LVL200:
 8875 40e8 207E      		andi r18,lo8(-32)
 8876               	.LM1137:
 8877 40ea 862F      		mov r24,r22
 8878 40ec 90E0      		ldi r25,lo8(0)
 8879               	.LVL201:
 8880 40ee FC01      		movw r30,r24
 8881 40f0 05E0      		ldi r16,5
 8882 40f2 EE0F      	1:	lsl r30
 8883 40f4 FF1F      		rol r31
 8884 40f6 0A95      		dec r16
 8885 40f8 01F4      		brne 1b
 8886 40fa 880F      		lsl r24
 8887 40fc 991F      		rol r25
 8888               	.LVL202:
 8889 40fe E80F      		add r30,r24
 8890 4100 F91F      		adc r31,r25
 8891 4102 E050      		subi r30,lo8(-(bankStates))
 8892 4104 F040      		sbci r31,hi8(-(bankStates))
 8893 4106 8081      		ld r24,Z
 8894 4108 8330      		cpi r24,lo8(3)
 8895 410a 01F4      		brne .L436
 8896               	.LM1138:
 8897 410c 2160      		ori r18,lo8(1)
 8898               	.L436:
 8899               	.LM1139:
 8900 410e 862F      		mov r24,r22
 8901 4110 90E0      		ldi r25,lo8(0)
 8902 4112 FC01      		movw r30,r24
 8903 4114 B5E0      		ldi r27,5
 8904 4116 EE0F      	1:	lsl r30
 8905 4118 FF1F      		rol r31
 8906 411a BA95      		dec r27
 8907 411c 01F4      		brne 1b
 8908 411e 880F      		lsl r24
 8909 4120 991F      		rol r25
 8910 4122 E80F      		add r30,r24
 8911 4124 F91F      		adc r31,r25
 8912 4126 E050      		subi r30,lo8(-(bankStates))
 8913 4128 F040      		sbci r31,hi8(-(bankStates))
 8914 412a 8081      		ld r24,Z
 8915 412c 8430      		cpi r24,lo8(4)
 8916 412e 01F4      		brne .L437
 8917               	.LM1140:
 8918 4130 2460      		ori r18,lo8(4)
 8919               	.L437:
 8920               	.LM1141:
 8921 4132 862F      		mov r24,r22
 8922 4134 90E0      		ldi r25,lo8(0)
 8923 4136 FC01      		movw r30,r24
 8924 4138 75E0      		ldi r23,5
 8925 413a EE0F      	1:	lsl r30
 8926 413c FF1F      		rol r31
 8927 413e 7A95      		dec r23
 8928 4140 01F4      		brne 1b
 8929               	.LVL203:
 8930 4142 880F      		lsl r24
 8931 4144 991F      		rol r25
 8932 4146 E80F      		add r30,r24
 8933 4148 F91F      		adc r31,r25
 8934 414a E050      		subi r30,lo8(-(bankStates))
 8935 414c F040      		sbci r31,hi8(-(bankStates))
 8936 414e 8081      		ld r24,Z
 8937 4150 8530      		cpi r24,lo8(5)
 8938 4152 01F4      		brne .L438
 8939               	.LM1142:
 8940 4154 2260      		ori r18,lo8(2)
 8941               	.L438:
 8942               	.LM1143:
 8943 4156 862F      		mov r24,r22
 8944 4158 90E0      		ldi r25,lo8(0)
 8945 415a FC01      		movw r30,r24
 8946 415c 45E0      		ldi r20,5
 8947 415e EE0F      	1:	lsl r30
 8948 4160 FF1F      		rol r31
 8949 4162 4A95      		dec r20
 8950 4164 01F4      		brne 1b
 8951 4166 880F      		lsl r24
 8952 4168 991F      		rol r25
 8953 416a E80F      		add r30,r24
 8954 416c F91F      		adc r31,r25
 8955 416e E050      		subi r30,lo8(-(bankStates))
 8956 4170 F040      		sbci r31,hi8(-(bankStates))
 8957 4172 8081      		ld r24,Z
 8958 4174 8230      		cpi r24,lo8(2)
 8959 4176 01F4      		brne .L439
 8960               	.LM1144:
 8961 4178 2760      		ori r18,lo8(7)
 8962               	.L439:
 8963               	.LM1145:
 8964 417a 8091 0000 		lds r24,outOfRam
 8965 417e 8130      		cpi r24,lo8(1)
 8966 4180 01F4      		brne .L440
 8967               	.LM1146:
 8968 4182 2860      		ori r18,lo8(8)
 8969               	.L440:
 8970               	.LM1147:
 8971 4184 6130      		cpi r22,lo8(1)
 8972 4186 01F4      		brne .L441
 8973               	.LM1148:
 8974 4188 2061      		ori r18,lo8(16)
 8975               	.L441:
 8976               	.LM1149:
 8977 418a 2093 0000 		sts ledOnOffMask,r18
 8978               	.LM1150:
 8979 418e 862F      		mov r24,r22
 8980 4190 90E0      		ldi r25,lo8(0)
 8981 4192 FC01      		movw r30,r24
 8982 4194 05E0      		ldi r16,5
 8983 4196 EE0F      	1:	lsl r30
 8984 4198 FF1F      		rol r31
 8985 419a 0A95      		dec r16
 8986 419c 01F4      		brne 1b
 8987 419e 880F      		lsl r24
 8988 41a0 991F      		rol r25
 8989 41a2 E80F      		add r30,r24
 8990 41a4 F91F      		adc r31,r25
 8991 41a6 E050      		subi r30,lo8(-(bankStates))
 8992 41a8 F040      		sbci r31,hi8(-(bankStates))
 8993 41aa 2785      		ldd r18,Z+15
 8994 41ac 3089      		ldd r19,Z+16
 8995 41ae 4189      		ldd r20,Z+17
 8996 41b0 5289      		ldd r21,Z+18
 8997               	.LVL204:
 8998 41b2 862F      		mov r24,r22
 8999 41b4 90E0      		ldi r25,lo8(0)
 9000 41b6 FC01      		movw r30,r24
 9001 41b8 B5E0      		ldi r27,5
 9002 41ba EE0F      	1:	lsl r30
 9003 41bc FF1F      		rol r31
 9004 41be BA95      		dec r27
 9005 41c0 01F4      		brne 1b
 9006 41c2 880F      		lsl r24
 9007 41c4 991F      		rol r25
 9008 41c6 E80F      		add r30,r24
 9009 41c8 F91F      		adc r31,r25
 9010 41ca E050      		subi r30,lo8(-(bankStates))
 9011 41cc F040      		sbci r31,hi8(-(bankStates))
 9012 41ce 8385      		ldd r24,Z+11
 9013 41d0 9485      		ldd r25,Z+12
 9014 41d2 A585      		ldd r26,Z+13
 9015 41d4 B685      		ldd r27,Z+14
 9016 41d6 2817      		cp r18,r24
 9017 41d8 3907      		cpc r19,r25
 9018 41da 4A07      		cpc r20,r26
 9019 41dc 5B07      		cpc r21,r27
 9020 41de 01F4      		brne .L442
 9021               	.LM1151:
 9022 41e0 8091 0000 		lds r24,ledBlinkMask
 9023 41e4 82FD      		sbrc r24,2
 9024 41e6 00C0      		rjmp .L444
 9025               	.LM1152:
 9026 41e8 84E0      		ldi r24,lo8(4)
 9027 41ea 90E0      		ldi r25,hi8(4)
 9028 41ec 00C0      		rjmp .L456
 9029               	.L442:
 9030               	.LBB268:
 9031               	.LBB269:
 9032               	.LM1153:
 9033 41ee 80E0      		ldi r24,lo8(0)
 9034 41f0 90E0      		ldi r25,hi8(0)
 9035               	.L456:
 9036 41f2 0E94 0000 		call BlinkLeds
 9037               	.L444:
 9038               	/* epilogue start */
 9039               	.LBE269:
 9040               	.LBE268:
 9041               	.LBE267:
 9042               	.LBE266:
 9043               	.LM1154:
 9044 41f6 DF91      		pop r29
 9045               	.LVL205:
 9046 41f8 CF91      		pop r28
 9047               	.LVL206:
 9048 41fa 1F91      		pop r17
 9049 41fc 0F91      		pop r16
 9050 41fe FF90      		pop r15
 9051 4200 EF90      		pop r14
 9052 4202 DF90      		pop r13
 9053 4204 CF90      		pop r12
 9054               	.LVL207:
 9055 4206 0895      		ret
 9056               	.LFE59:
 9059               	SetMidiChannels:
 9060               	.LFB61:
 9061               	.LM1155:
 9062               	/* prologue: function */
 9063               	/* frame size = 0 */
 9064               	.LM1156:
 9065 4208 8091 0000 		lds r24,subState
 9066 420c 8823      		tst r24
 9067 420e 01F4      		brne .L468
 9068               	.LM1157:
 9069 4210 0E94 0000 		call GetMidiChannel
 9070 4214 8093 0000 		sts midiChannelNumberA,r24
 9071               	.LM1158:
 9072 4218 81E0      		ldi r24,lo8(1)
 9073 421a 0E94 0000 		call GetMidiChannel
 9074 421e 8093 0000 		sts midiChannelNumberB,r24
 9075               	.LVL208:
 9076               	.LM1159:
 9077 4222 8295      		swap r24
 9078 4224 807F      		andi r24,lo8(-16)
 9079 4226 9091 0000 		lds r25,midiChannelNumberA
 9080 422a 982B      		or r25,r24
 9081 422c 9093 0000 		sts ledOnOffMask,r25
 9082               	.LM1160:
 9083 4230 81E0      		ldi r24,lo8(1)
 9084               	.LVL209:
 9085 4232 8093 0000 		sts subState,r24
 9086 4236 0895      		ret
 9087               	.L468:
 9088               	.LM1161:
 9089 4238 8091 0000 		lds r24,newKeys
 9090 423c 282F      		mov r18,r24
 9091 423e 80FF      		sbrs r24,0
 9092 4240 00C0      		rjmp .L470
 9093               	.LM1162:
 9094 4242 8091 0000 		lds r24,midiChannelNumberA
 9095               	.LVL210:
 9096 4246 8F5F      		subi r24,lo8(-(1))
 9097 4248 8093 0000 		sts midiChannelNumberA,r24
 9098               	.LM1163:
 9099 424c 8031      		cpi r24,lo8(16)
 9100 424e 00F0      		brlo .L471
 9101               	.LM1164:
 9102 4250 1092 0000 		sts midiChannelNumberA,__zero_reg__
 9103               	.L471:
 9104               	.LM1165:
 9105 4254 8091 0000 		lds r24,ledOnOffMask
 9106               	.LVL211:
 9107 4258 807F      		andi r24,lo8(-16)
 9108               	.LM1166:
 9109 425a 9091 0000 		lds r25,midiChannelNumberA
 9110 425e 892B      		or r24,r25
 9111 4260 8093 0000 		sts ledOnOffMask,r24
 9112               	.L470:
 9113               	.LM1167:
 9114 4264 21FF      		sbrs r18,1
 9115 4266 00C0      		rjmp .L472
 9116               	.LM1168:
 9117 4268 8091 0000 		lds r24,midiChannelNumberB
 9118               	.LVL212:
 9119 426c 8F5F      		subi r24,lo8(-(1))
 9120 426e 8093 0000 		sts midiChannelNumberB,r24
 9121               	.LM1169:
 9122 4272 8031      		cpi r24,lo8(16)
 9123 4274 00F0      		brlo .L473
 9124               	.LM1170:
 9125 4276 1092 0000 		sts midiChannelNumberB,__zero_reg__
 9126               	.L473:
 9127               	.LM1171:
 9128 427a 9091 0000 		lds r25,ledOnOffMask
 9129 427e 9F70      		andi r25,lo8(15)
 9130               	.LM1172:
 9131 4280 8091 0000 		lds r24,midiChannelNumberB
 9132               	.LVL213:
 9133 4284 8295      		swap r24
 9134 4286 807F      		andi r24,lo8(-16)
 9135 4288 892B      		or r24,r25
 9136 428a 8093 0000 		sts ledOnOffMask,r24
 9137               	.L472:
 9138               	.LM1173:
 9139 428e 22FF      		sbrs r18,2
 9140 4290 00C0      		rjmp .L474
 9141               	.LBB270:
 9142               	.LBB271:
 9143               	.LM1174:
 9144 4292 84E0      		ldi r24,lo8(4)
 9145 4294 90E0      		ldi r25,hi8(4)
 9146 4296 6091 0000 		lds r22,midiChannelNumberA
 9147 429a 0E94 0000 		call EepromWrite
 9148               	.LBE271:
 9149               	.LBE270:
 9150               	.LBB272:
 9151               	.LBB273:
 9152               	.LM1175:
 9153 429e 88E0      		ldi r24,lo8(8)
 9154 42a0 90E0      		ldi r25,hi8(8)
 9155 42a2 6091 0000 		lds r22,midiChannelNumberB
 9156 42a6 0E94 0000 		call EepromWrite
 9157               	.LBE273:
 9158               	.LBE272:
 9159               	.LBB274:
 9160               	.LBB275:
 9161               	.LM1176:
 9162 42aa 80E0      		ldi r24,lo8(gs(DoSampler))
 9163 42ac 90E0      		ldi r25,hi8(gs(DoSampler))
 9164 42ae 9093 0000 		sts (State)+1,r25
 9165 42b2 8093 0000 		sts State,r24
 9166               	.LM1177:
 9167 42b6 1092 0000 		sts subState,__zero_reg__
 9168               	.L474:
 9169 42ba 0895      		ret
 9170               	.LBE275:
 9171               	.LBE274:
 9172               	.LFE61:
 9174               		.lcomm lastKeyState.2386,1
 9175               		.lcomm lastEncTime.2418,2
 9176               		.lcomm lastEncoderState.2417,1
 9177               		.lcomm lastLedMask.2346,1
 9178               		.lcomm toggle.2345,1
 9179               		.lcomm bytesLeftInBlock.2558,2
 9180               		.data
 9183               	random31:
 9184 0000 EF        		.byte	-17
 9185 0001 BE        		.byte	-66
 9186 0002 00        		.byte	0
 9187 0003 00        		.byte	0
 9188               		.lcomm i.3244,1
 9189               		.lcomm editModeEntered.3040,1
 9190               		.lcomm realtimeOn.3038,2
 9193               	currentNoteOn.3037:
 9194 0004 3C        		.byte	60
 9195 0005 3C        		.byte	60
 9196               		.lcomm currentMidiMessage.3036,4
 9197               		.lcomm currentBank.3035,1
 9200               	OctaveZeroCompareMatches:
 9201 0006 FFFF      		.word	-1
 9202 0008 A1F1      		.word	-3679
 9203 000a 11E4      		.word	-7151
 9204 000c 44D7      		.word	-10428
 9205 000e 2FCB      		.word	-13521
 9206 0010 C8BF      		.word	-16440
 9207 0012 04B5      		.word	-19196
 9208 0014 DBAA      		.word	-21797
 9209 0016 44A1      		.word	-24252
 9210 0018 3798      		.word	-26569
 9211 001a AC8F      		.word	-28756
 9212 001c 9C87      		.word	-30820
 9213               		.lcomm lastShuttleRead.3178,1
 9214               		.lcomm pwmCount.2266,1
 9215               		.lcomm flipFlop.2223,1
 9216               		.lcomm lastJitterValue.2222,2
 9217               		.lcomm sawtooth.1804,1
 9218               		.lcomm flipFlop.2178,1
 9219               		.lcomm lastJitterValue.2177,2
 9220               		.lcomm sawtooth.1595,1
 9221               		.lcomm flipFlop.2149,1
 9222               		.lcomm flipFlop.2125,1
 9223               		.lcomm ledOnOffMask,1
 9224               		.lcomm ledBlinkMask,1
 9225               		.lcomm ledPwm,1
 9226               		.lcomm keyState,1
 9227               		.lcomm newKeys,1
 9228               		.lcomm cardDetect,1
 9229               		.lcomm subState,1
 9230               		.lcomm outOfRam,1
 9231               		.lcomm encoderState,1
 9232               		.lcomm encoderValue,1
 9233               		.lcomm scaledEncoderValue,1
 9234               		.lcomm granularPositionArrayPointer,2
 9235               		.lcomm sliceSize,8
 9236               		.lcomm sliceRemaining,8
 9237               		.lcomm granularPositionArray,256
 9238               		.lcomm adcByte,1
 9239               		.lcomm cardState,1
 9240               		.lcomm sampleToc,64
 9241               		.lcomm sdWritingFrom0,1
 9242               		.lcomm sdWritingFrom1,1
 9243               		.lcomm sdReadingInto0,1
 9244               		.lcomm sdReadingInto1,1
 9245               		.lcomm cardReadyForTransfer,1
 9246               		.lcomm extIsrOutputBank0,1
 9247               		.lcomm extIsrOutputBank1,1
 9248               		.lcomm midiOutputBank0,1
 9249               		.lcomm midiOutputBank1,1
 9250               		.lcomm lastDacByte,1
 9251               		.lcomm theMidiRecordRate,4
 9252               		.comm State,2,1
 9253               		.comm UpdateOutput,2,1
 9518               	.Letext0:
DEFINED SYMBOLS
                            *ABS*:00000000 WTPA.c
     /tmp/ccptpItm.s:2      *ABS*:0000003f __SREG__
     /tmp/ccptpItm.s:3      *ABS*:0000003e __SP_H__
     /tmp/ccptpItm.s:4      *ABS*:0000003d __SP_L__
     /tmp/ccptpItm.s:5      *ABS*:00000034 __CCP__
     /tmp/ccptpItm.s:6      *ABS*:00000000 __tmp_reg__
     /tmp/ccptpItm.s:7      *ABS*:00000001 __zero_reg__
     /tmp/ccptpItm.s:17     .text:00000000 UpdateAudioChannel0
     /tmp/ccptpItm.s:9219   .bss:0000001a sawtooth.1595
     /tmp/ccptpItm.s:9237   .bss:0000013a adcByte
     /tmp/ccptpItm.s:9229   .bss:00000024 outOfRam
     /tmp/ccptpItm.s:9235   .bss:00000032 sliceRemaining
     /tmp/ccptpItm.s:9234   .bss:0000002a sliceSize
     /tmp/ccptpItm.s:9233   .bss:00000028 granularPositionArrayPointer
     /tmp/ccptpItm.s:9236   .bss:0000003a granularPositionArray
     /tmp/ccptpItm.s:811    .text:0000077e UpdateAudioChannel1
     /tmp/ccptpItm.s:9216   .bss:00000016 sawtooth.1804
     /tmp/ccptpItm.s:1621   .text:00000f1c OutputMultiplyBanks
     /tmp/ccptpItm.s:9247   .bss:00000183 midiOutputBank0
     /tmp/ccptpItm.s:9245   .bss:00000181 extIsrOutputBank0
     /tmp/ccptpItm.s:9248   .bss:00000184 midiOutputBank1
     /tmp/ccptpItm.s:9246   .bss:00000182 extIsrOutputBank1
     /tmp/ccptpItm.s:9249   .bss:00000185 lastDacByte
     /tmp/ccptpItm.s:1718   .text:00000fb0 OutputAddBanks
     /tmp/ccptpItm.s:1790   .text:0000101a OutputXorBanks
     /tmp/ccptpItm.s:1877   .text:00001098 OutputAndBanks
     /tmp/ccptpItm.s:1969   .text:0000111e __vector_12
     /tmp/ccptpItm.s:9221   .bss:0000001c flipFlop.2125
                            *COM*:00000002 UpdateOutput
     /tmp/ccptpItm.s:2048   .text:000011ac __vector_6
     /tmp/ccptpItm.s:9220   .bss:0000001b flipFlop.2149
     /tmp/ccptpItm.s:2129   .text:0000123c __vector_13
     /tmp/ccptpItm.s:9217   .bss:00000017 flipFlop.2178
     /tmp/ccptpItm.s:9183   .data:00000000 random31
     /tmp/ccptpItm.s:9218   .bss:00000018 lastJitterValue.2177
     /tmp/ccptpItm.s:2271   .text:0000136e __vector_14
     /tmp/ccptpItm.s:9214   .bss:00000013 flipFlop.2223
     /tmp/ccptpItm.s:9215   .bss:00000014 lastJitterValue.2222
     /tmp/ccptpItm.s:2413   .text:000014a0 __vector_9
     /tmp/ccptpItm.s:9224   .bss:0000001f ledPwm
     /tmp/ccptpItm.s:9213   .bss:00000012 pwmCount.2266
     /tmp/ccptpItm.s:2454   .text:000014d6 __vector_default
     /tmp/ccptpItm.s:2475   .text:000014ea HandleSoftclock
     /tmp/ccptpItm.s:2496   .text:00001504 SetSampleClock
     /tmp/ccptpItm.s:2608   .text:000015c0 StartRecording
     /tmp/ccptpItm.s:2841   .text:0000175e StartPlayback
     /tmp/ccptpItm.s:9222   .bss:0000001d ledOnOffMask
     /tmp/ccptpItm.s:3026   .text:00001894 StartOverdub
     /tmp/ccptpItm.s:3085   .text:000018e0 StartRealtime
     /tmp/ccptpItm.s:3144   .text:0000192c GetPlaybackRateFromNote
     /tmp/ccptpItm.s:9200   .data:00000006 OctaveZeroCompareMatches
     /tmp/ccptpItm.s:3178   .text:00001958 MakeNewGranularArray
     /tmp/ccptpItm.s:3504   .text:00001bbc UpdateAdjustedSampleAddresses
     /tmp/ccptpItm.s:4336   .text:0000241c BlinkLeds
     /tmp/ccptpItm.s:9223   .bss:0000001e ledBlinkMask
     /tmp/ccptpItm.s:4397   .text:00002474 KillLeds
     /tmp/ccptpItm.s:4414   .text:00002482 DoFormatCard
     /tmp/ccptpItm.s:9228   .bss:00000023 subState
     /tmp/ccptpItm.s:9225   .bss:00000020 keyState
     /tmp/ccptpItm.s:9238   .bss:0000013b cardState
     /tmp/ccptpItm.s:4694   .text:0000263c DoFruitcakeIntro
                            *COM*:00000002 State
     /tmp/ccptpItm.s:9226   .bss:00000021 newKeys
     /tmp/ccptpItm.s:4519   .text:0000252c DoSawtooth
     /tmp/ccptpItm.s:9231   .bss:00000026 encoderValue
     /tmp/ccptpItm.s:9197   .bss:00000011 lastShuttleRead.3178
     /tmp/ccptpItm.s:9179   .bss:00000008 i.3244
     /tmp/ccptpItm.s:4896   .text:00002796 DoStartupSelect
     /tmp/ccptpItm.s:9059   .text:00004208 SetMidiChannels
     /tmp/ccptpItm.s:6111   .text:00002e52 DoSampler
     /tmp/ccptpItm.s:4966   .text:000027ee main
     /tmp/ccptpItm.s:9230   .bss:00000025 encoderState
     /tmp/ccptpItm.s:9227   .bss:00000022 cardDetect
     /tmp/ccptpItm.s:9240   .bss:0000017c sdWritingFrom0
     /tmp/ccptpItm.s:9241   .bss:0000017d sdWritingFrom1
     /tmp/ccptpItm.s:9242   .bss:0000017e sdReadingInto0
     /tmp/ccptpItm.s:9243   .bss:0000017f sdReadingInto1
                             .bss:00000000 lastKeyState.2386
     /tmp/ccptpItm.s:9174   .bss:00000001 lastEncTime.2418
     /tmp/ccptpItm.s:9175   .bss:00000003 lastEncoderState.2417
     /tmp/ccptpItm.s:9177   .bss:00000005 toggle.2345
     /tmp/ccptpItm.s:9176   .bss:00000004 lastLedMask.2346
     /tmp/ccptpItm.s:9239   .bss:0000013c sampleToc
     /tmp/ccptpItm.s:9178   .bss:00000006 bytesLeftInBlock.2558
     /tmp/ccptpItm.s:9244   .bss:00000180 cardReadyForTransfer
     /tmp/ccptpItm.s:6062   .text:00002e2a GetMidiChannel
     /tmp/ccptpItm.s:9250   .bss:00000186 theMidiRecordRate
     /tmp/ccptpItm.s:9189   .bss:0000000a realtimeOn.3038
     /tmp/ccptpItm.s:9188   .bss:00000009 editModeEntered.3040
     /tmp/ccptpItm.s:9196   .bss:00000010 currentBank.3035
     /tmp/ccptpItm.s:9232   .bss:00000027 scaledEncoderValue
     /tmp/ccptpItm.s:9190   .bss:0000000c currentMidiMessage.3036
     /tmp/ccptpItm.s:9193   .data:00000004 currentNoteOn.3037

UNDEFINED SYMBOLS
bankStates
__mulsi3
__divmodhi4
__udivmodsi4
systemTicks
__udivmodqi4
SetTimer
CheckTimer
InitSdInterface
InitMidi
InitUart0
SdHandshake
SdBeginSingleBlockRead
TransferSdByte
EndSdTransfer
SdBeginSingleBlockWrite
Uart0GotByte
Uart0GetByte
HandleIncomingMidiByte
MidiTxBufferNotEmpty
PopOutgoingMidiByte
EepromRead
midiChannelNumberA
midiChannelNumberB
PutMidiMessageInOutgoingFifo
midiMessagesInIncomingFifo
GetMidiMessageFromIncomingFifo
EepromWrite
__do_copy_data
__do_clear_bss
